Component: ARM Compiler 6.16 Tool: armlink [5dfeaa00]

==============================================================================

Section Cross References

    startup_da14585_586.o(RESET) refers to startup_da14585_586.o(STACK) for __initial_sp
    startup_da14585_586.o(RESET) refers to startup_da14585_586.o(.text) for Reset_Handler
    startup_da14585_586.o(RESET) refers to lto-llvm-8ef5f6.o(.text.SysTick_Handler) for SysTick_Handler
    startup_da14585_586.o(RESET) refers to lto-llvm-8ef5f6.o(.text.BLE_WAKEUP_LP_Handler) for BLE_WAKEUP_LP_Handler
    startup_da14585_586.o(RESET) refers to lto-llvm-8ef5f6.o(.text.rwble_isr) for rwble_isr
    startup_da14585_586.o(RESET) refers to lto-llvm-8ef5f6.o(.text.UART2_Handler) for UART2_Handler
    startup_da14585_586.o(RESET) refers to lto-llvm-8ef5f6.o(.text.I2C_Handler) for I2C_Handler
    startup_da14585_586.o(RESET) refers to lto-llvm-8ef5f6.o(.text.ADC_Handler) for ADC_Handler
    startup_da14585_586.o(RESET) refers to lto-llvm-8ef5f6.o(.text.GPIO0_Handler) for GPIO0_Handler
    startup_da14585_586.o(RESET) refers to lto-llvm-8ef5f6.o(.text.GPIO1_Handler) for GPIO1_Handler
    startup_da14585_586.o(RESET) refers to lto-llvm-8ef5f6.o(.text.GPIO2_Handler) for GPIO2_Handler
    startup_da14585_586.o(RESET) refers to lto-llvm-8ef5f6.o(.text.GPIO3_Handler) for GPIO3_Handler
    startup_da14585_586.o(RESET) refers to lto-llvm-8ef5f6.o(.text.GPIO4_Handler) for GPIO4_Handler
    startup_da14585_586.o(RESET) refers to lto-llvm-8ef5f6.o(.text.WKUP_QUADEC_Handler) for WKUP_QUADEC_Handler
    startup_da14585_586.o(.text) refers to lto-llvm-8ef5f6.o(system_DA14xxx) for SystemInit
    startup_da14585_586.o(.text) refers to entry.o(.ARM.Collect$$$$00000000) for __main
    startup_da14585_586.o(.text) refers to lto-llvm-8ef5f6.o(.text.NMI_HandlerC) for NMI_HandlerC
    startup_da14585_586.o(.text) refers to lto-llvm-8ef5f6.o(.text.HardFault_HandlerC) for HardFault_HandlerC
    patch.o(.text) refers to patch.o(.constdata) for .constdata
    patch.o(.constdata) refers to patch.o(.text) for PATCHED_llcp_length_req_handler
    patch.o(.constdata) refers to smpc_util.o(.text) for PATCHED_smpc_dhkey_calc_start
    cos.o(i.__softfp_cos) refers (Special) to iusefp.o(.text) for __I$use$fp
    cos.o(i.__softfp_cos) refers to cos.o(i.cos) for cos
    cos.o(i.cos) refers (Special) to iusefp.o(.text) for __I$use$fp
    cos.o(i.cos) refers to errno.o(i.__set_errno) for __set_errno
    cos.o(i.cos) refers to dunder.o(i.__mathlib_dbl_invalid) for __mathlib_dbl_invalid
    cos.o(i.cos) refers to dunder.o(i.__mathlib_dbl_infnan) for __mathlib_dbl_infnan
    cos.o(i.cos) refers to rred.o(i.__ieee754_rem_pio2) for __ieee754_rem_pio2
    cos.o(i.cos) refers to sin_i.o(i.__kernel_sin) for __kernel_sin
    cos.o(i.cos) refers to cos_i.o(i.__kernel_cos) for __kernel_cos
    sin.o(i.__softfp_sin) refers (Special) to iusefp.o(.text) for __I$use$fp
    sin.o(i.__softfp_sin) refers to sin.o(i.sin) for sin
    sin.o(i.sin) refers (Special) to iusefp.o(.text) for __I$use$fp
    sin.o(i.sin) refers to errno.o(i.__set_errno) for __set_errno
    sin.o(i.sin) refers to dunder.o(i.__mathlib_dbl_invalid) for __mathlib_dbl_invalid
    sin.o(i.sin) refers to dunder.o(i.__mathlib_dbl_infnan) for __mathlib_dbl_infnan
    sin.o(i.sin) refers to rred.o(i.__ieee754_rem_pio2) for __ieee754_rem_pio2
    sin.o(i.sin) refers to cos_i.o(i.__kernel_cos) for __kernel_cos
    sin.o(i.sin) refers to sin_i.o(i.__kernel_sin) for __kernel_sin
    entry.o(.ARM.Collect$$$$00000000) refers (Special) to entry10a.o(.ARM.Collect$$$$0000000D) for __rt_final_cpp
    entry.o(.ARM.Collect$$$$00000000) refers (Special) to entry11a.o(.ARM.Collect$$$$0000000F) for __rt_final_exit
    entry.o(.ARM.Collect$$$$00000000) refers (Special) to entry7b.o(.ARM.Collect$$$$00000008) for _main_clock
    entry.o(.ARM.Collect$$$$00000000) refers (Special) to entry8b.o(.ARM.Collect$$$$0000000A) for _main_cpp_init
    entry.o(.ARM.Collect$$$$00000000) refers (Special) to entry9a.o(.ARM.Collect$$$$0000000B) for _main_init
    entry.o(.ARM.Collect$$$$00000000) refers (Special) to entry5.o(.ARM.Collect$$$$00000004) for _main_scatterload
    entry.o(.ARM.Collect$$$$00000000) refers (Special) to entry2.o(.ARM.Collect$$$$00000001) for _main_stk
    printfb.o(i.__0fprintf$bare) refers to printfb.o(i._printf_core) for _printf_core
    printfb.o(i.__0fprintf$bare) refers to fputc.o(i.fputc) for fputc
    printfb.o(i.__0printf$bare) refers to printfb.o(i._printf_core) for _printf_core
    printfb.o(i.__0printf$bare) refers to fputc.o(i.fputc) for fputc
    printfb.o(i.__0printf$bare) refers to stdout.o(.data) for __stdout
    printfb.o(i.__0snprintf$bare) refers to printfb.o(i._printf_core) for _printf_core
    printfb.o(i.__0snprintf$bare) refers to printfb.o(i._snputc) for _snputc
    printfb.o(i.__0sprintf$bare) refers to printfb.o(i._printf_core) for _printf_core
    printfb.o(i.__0sprintf$bare) refers to printfb.o(i._sputc) for _sputc
    printfb.o(i.__0vfprintf$bare) refers to printfb.o(i._printf_core) for _printf_core
    printfb.o(i.__0vfprintf$bare) refers to fputc.o(i.fputc) for fputc
    printfb.o(i.__0vprintf$bare) refers to printfb.o(i._printf_core) for _printf_core
    printfb.o(i.__0vprintf$bare) refers to fputc.o(i.fputc) for fputc
    printfb.o(i.__0vprintf$bare) refers to stdout.o(.data) for __stdout
    printfb.o(i.__0vsnprintf$bare) refers to printfb.o(i._printf_core) for _printf_core
    printfb.o(i.__0vsnprintf$bare) refers to printfb.o(i._snputc) for _snputc
    printfb.o(i.__0vsprintf$bare) refers to printfb.o(i._printf_core) for _printf_core
    printfb.o(i.__0vsprintf$bare) refers to printfb.o(i._sputc) for _sputc
    printf0.o(i.__0fprintf$0) refers to printf0.o(i._printf_core) for _printf_core
    printf0.o(i.__0fprintf$0) refers to fputc.o(i.fputc) for fputc
    printf0.o(i.__0printf$0) refers to printf0.o(i._printf_core) for _printf_core
    printf0.o(i.__0printf$0) refers to fputc.o(i.fputc) for fputc
    printf0.o(i.__0printf$0) refers to stdout.o(.data) for __stdout
    printf0.o(i.__0snprintf$0) refers to printf0.o(i._printf_core) for _printf_core
    printf0.o(i.__0snprintf$0) refers to printf0.o(i._snputc) for _snputc
    printf0.o(i.__0sprintf$0) refers to printf0.o(i._printf_core) for _printf_core
    printf0.o(i.__0sprintf$0) refers to printf0.o(i._sputc) for _sputc
    printf0.o(i.__0vfprintf$0) refers to printf0.o(i._printf_core) for _printf_core
    printf0.o(i.__0vfprintf$0) refers to fputc.o(i.fputc) for fputc
    printf0.o(i.__0vprintf$0) refers to printf0.o(i._printf_core) for _printf_core
    printf0.o(i.__0vprintf$0) refers to fputc.o(i.fputc) for fputc
    printf0.o(i.__0vprintf$0) refers to stdout.o(.data) for __stdout
    printf0.o(i.__0vsnprintf$0) refers to printf0.o(i._printf_core) for _printf_core
    printf0.o(i.__0vsnprintf$0) refers to printf0.o(i._snputc) for _snputc
    printf0.o(i.__0vsprintf$0) refers to printf0.o(i._printf_core) for _printf_core
    printf0.o(i.__0vsprintf$0) refers to printf0.o(i._sputc) for _sputc
    printf1.o(i.__0fprintf$1) refers to printf1.o(i._printf_core) for _printf_core
    printf1.o(i.__0fprintf$1) refers to fputc.o(i.fputc) for fputc
    printf1.o(i.__0printf$1) refers to printf1.o(i._printf_core) for _printf_core
    printf1.o(i.__0printf$1) refers to fputc.o(i.fputc) for fputc
    printf1.o(i.__0printf$1) refers to stdout.o(.data) for __stdout
    printf1.o(i.__0snprintf$1) refers to printf1.o(i._printf_core) for _printf_core
    printf1.o(i.__0snprintf$1) refers to printf1.o(i._snputc) for _snputc
    printf1.o(i.__0sprintf$1) refers to printf1.o(i._printf_core) for _printf_core
    printf1.o(i.__0sprintf$1) refers to printf1.o(i._sputc) for _sputc
    printf1.o(i.__0vfprintf$1) refers to printf1.o(i._printf_core) for _printf_core
    printf1.o(i.__0vfprintf$1) refers to fputc.o(i.fputc) for fputc
    printf1.o(i.__0vprintf$1) refers to printf1.o(i._printf_core) for _printf_core
    printf1.o(i.__0vprintf$1) refers to fputc.o(i.fputc) for fputc
    printf1.o(i.__0vprintf$1) refers to stdout.o(.data) for __stdout
    printf1.o(i.__0vsnprintf$1) refers to printf1.o(i._printf_core) for _printf_core
    printf1.o(i.__0vsnprintf$1) refers to printf1.o(i._snputc) for _snputc
    printf1.o(i.__0vsprintf$1) refers to printf1.o(i._printf_core) for _printf_core
    printf1.o(i.__0vsprintf$1) refers to printf1.o(i._sputc) for _sputc
    printf2.o(i.__0fprintf$2) refers to printf2.o(i._printf_core) for _printf_core
    printf2.o(i.__0fprintf$2) refers to fputc.o(i.fputc) for fputc
    printf2.o(i.__0printf$2) refers to printf2.o(i._printf_core) for _printf_core
    printf2.o(i.__0printf$2) refers to fputc.o(i.fputc) for fputc
    printf2.o(i.__0printf$2) refers to stdout.o(.data) for __stdout
    printf2.o(i.__0snprintf$2) refers to printf2.o(i._printf_core) for _printf_core
    printf2.o(i.__0snprintf$2) refers to printf2.o(i._snputc) for _snputc
    printf2.o(i.__0sprintf$2) refers to printf2.o(i._printf_core) for _printf_core
    printf2.o(i.__0sprintf$2) refers to printf2.o(i._sputc) for _sputc
    printf2.o(i.__0vfprintf$2) refers to printf2.o(i._printf_core) for _printf_core
    printf2.o(i.__0vfprintf$2) refers to fputc.o(i.fputc) for fputc
    printf2.o(i.__0vprintf$2) refers to printf2.o(i._printf_core) for _printf_core
    printf2.o(i.__0vprintf$2) refers to fputc.o(i.fputc) for fputc
    printf2.o(i.__0vprintf$2) refers to stdout.o(.data) for __stdout
    printf2.o(i.__0vsnprintf$2) refers to printf2.o(i._printf_core) for _printf_core
    printf2.o(i.__0vsnprintf$2) refers to printf2.o(i._snputc) for _snputc
    printf2.o(i.__0vsprintf$2) refers to printf2.o(i._printf_core) for _printf_core
    printf2.o(i.__0vsprintf$2) refers to printf2.o(i._sputc) for _sputc
    printf3.o(i.__0fprintf$3) refers to printf3.o(i._printf_core) for _printf_core
    printf3.o(i.__0fprintf$3) refers to fputc.o(i.fputc) for fputc
    printf3.o(i.__0printf$3) refers to printf3.o(i._printf_core) for _printf_core
    printf3.o(i.__0printf$3) refers to fputc.o(i.fputc) for fputc
    printf3.o(i.__0printf$3) refers to stdout.o(.data) for __stdout
    printf3.o(i.__0snprintf$3) refers to printf3.o(i._printf_core) for _printf_core
    printf3.o(i.__0snprintf$3) refers to printf3.o(i._snputc) for _snputc
    printf3.o(i.__0sprintf$3) refers to printf3.o(i._printf_core) for _printf_core
    printf3.o(i.__0sprintf$3) refers to printf3.o(i._sputc) for _sputc
    printf3.o(i.__0vfprintf$3) refers to printf3.o(i._printf_core) for _printf_core
    printf3.o(i.__0vfprintf$3) refers to fputc.o(i.fputc) for fputc
    printf3.o(i.__0vprintf$3) refers to printf3.o(i._printf_core) for _printf_core
    printf3.o(i.__0vprintf$3) refers to fputc.o(i.fputc) for fputc
    printf3.o(i.__0vprintf$3) refers to stdout.o(.data) for __stdout
    printf3.o(i.__0vsnprintf$3) refers to printf3.o(i._printf_core) for _printf_core
    printf3.o(i.__0vsnprintf$3) refers to printf3.o(i._snputc) for _snputc
    printf3.o(i.__0vsprintf$3) refers to printf3.o(i._printf_core) for _printf_core
    printf3.o(i.__0vsprintf$3) refers to printf3.o(i._sputc) for _sputc
    printf4.o(i.__0fprintf$4) refers to printf4.o(i._printf_core) for _printf_core
    printf4.o(i.__0fprintf$4) refers to fputc.o(i.fputc) for fputc
    printf4.o(i.__0printf$4) refers to printf4.o(i._printf_core) for _printf_core
    printf4.o(i.__0printf$4) refers to fputc.o(i.fputc) for fputc
    printf4.o(i.__0printf$4) refers to stdout.o(.data) for __stdout
    printf4.o(i.__0snprintf$4) refers to printf4.o(i._printf_core) for _printf_core
    printf4.o(i.__0snprintf$4) refers to printf4.o(i._snputc) for _snputc
    printf4.o(i.__0sprintf$4) refers to printf4.o(i._printf_core) for _printf_core
    printf4.o(i.__0sprintf$4) refers to printf4.o(i._sputc) for _sputc
    printf4.o(i.__0vfprintf$4) refers to printf4.o(i._printf_core) for _printf_core
    printf4.o(i.__0vfprintf$4) refers to fputc.o(i.fputc) for fputc
    printf4.o(i.__0vprintf$4) refers to printf4.o(i._printf_core) for _printf_core
    printf4.o(i.__0vprintf$4) refers to fputc.o(i.fputc) for fputc
    printf4.o(i.__0vprintf$4) refers to stdout.o(.data) for __stdout
    printf4.o(i.__0vsnprintf$4) refers to printf4.o(i._printf_core) for _printf_core
    printf4.o(i.__0vsnprintf$4) refers to printf4.o(i._snputc) for _snputc
    printf4.o(i.__0vsprintf$4) refers to printf4.o(i._printf_core) for _printf_core
    printf4.o(i.__0vsprintf$4) refers to printf4.o(i._sputc) for _sputc
    printf4.o(i._printf_core) refers to uldiv.o(.text) for __aeabi_uldivmod
    printf5.o(i.__0fprintf$5) refers to printf5.o(i._printf_core) for _printf_core
    printf5.o(i.__0fprintf$5) refers to fputc.o(i.fputc) for fputc
    printf5.o(i.__0printf$5) refers to printf5.o(i._printf_core) for _printf_core
    printf5.o(i.__0printf$5) refers to fputc.o(i.fputc) for fputc
    printf5.o(i.__0printf$5) refers to stdout.o(.data) for __stdout
    printf5.o(i.__0snprintf$5) refers to printf5.o(i._printf_core) for _printf_core
    printf5.o(i.__0snprintf$5) refers to printf5.o(i._snputc) for _snputc
    printf5.o(i.__0sprintf$5) refers to printf5.o(i._printf_core) for _printf_core
    printf5.o(i.__0sprintf$5) refers to printf5.o(i._sputc) for _sputc
    printf5.o(i.__0vfprintf$5) refers to printf5.o(i._printf_core) for _printf_core
    printf5.o(i.__0vfprintf$5) refers to fputc.o(i.fputc) for fputc
    printf5.o(i.__0vprintf$5) refers to printf5.o(i._printf_core) for _printf_core
    printf5.o(i.__0vprintf$5) refers to fputc.o(i.fputc) for fputc
    printf5.o(i.__0vprintf$5) refers to stdout.o(.data) for __stdout
    printf5.o(i.__0vsnprintf$5) refers to printf5.o(i._printf_core) for _printf_core
    printf5.o(i.__0vsnprintf$5) refers to printf5.o(i._snputc) for _snputc
    printf5.o(i.__0vsprintf$5) refers to printf5.o(i._printf_core) for _printf_core
    printf5.o(i.__0vsprintf$5) refers to printf5.o(i._sputc) for _sputc
    printf5.o(i._printf_core) refers to uldiv.o(.text) for __aeabi_uldivmod
    printf6.o(i.__0fprintf$6) refers to printf6.o(i._printf_core) for _printf_core
    printf6.o(i.__0fprintf$6) refers to fputc.o(i.fputc) for fputc
    printf6.o(i.__0printf$6) refers to printf6.o(i._printf_core) for _printf_core
    printf6.o(i.__0printf$6) refers to fputc.o(i.fputc) for fputc
    printf6.o(i.__0printf$6) refers to stdout.o(.data) for __stdout
    printf6.o(i.__0snprintf$6) refers to printf6.o(i._printf_core) for _printf_core
    printf6.o(i.__0snprintf$6) refers to printf6.o(i._snputc) for _snputc
    printf6.o(i.__0sprintf$6) refers to printf6.o(i._printf_core) for _printf_core
    printf6.o(i.__0sprintf$6) refers to printf6.o(i._sputc) for _sputc
    printf6.o(i.__0vfprintf$6) refers to printf6.o(i._printf_core) for _printf_core
    printf6.o(i.__0vfprintf$6) refers to fputc.o(i.fputc) for fputc
    printf6.o(i.__0vprintf$6) refers to printf6.o(i._printf_core) for _printf_core
    printf6.o(i.__0vprintf$6) refers to fputc.o(i.fputc) for fputc
    printf6.o(i.__0vprintf$6) refers to stdout.o(.data) for __stdout
    printf6.o(i.__0vsnprintf$6) refers to printf6.o(i._printf_core) for _printf_core
    printf6.o(i.__0vsnprintf$6) refers to printf6.o(i._snputc) for _snputc
    printf6.o(i.__0vsprintf$6) refers to printf6.o(i._printf_core) for _printf_core
    printf6.o(i.__0vsprintf$6) refers to printf6.o(i._sputc) for _sputc
    printf6.o(i._printf_core) refers to printf6.o(i._printf_pre_padding) for _printf_pre_padding
    printf6.o(i._printf_core) refers to printf6.o(i._printf_post_padding) for _printf_post_padding
    printf7.o(i.__0fprintf$7) refers to printf7.o(i._printf_core) for _printf_core
    printf7.o(i.__0fprintf$7) refers to fputc.o(i.fputc) for fputc
    printf7.o(i.__0printf$7) refers to printf7.o(i._printf_core) for _printf_core
    printf7.o(i.__0printf$7) refers to fputc.o(i.fputc) for fputc
    printf7.o(i.__0printf$7) refers to stdout.o(.data) for __stdout
    printf7.o(i.__0snprintf$7) refers to printf7.o(i._printf_core) for _printf_core
    printf7.o(i.__0snprintf$7) refers to printf7.o(i._snputc) for _snputc
    printf7.o(i.__0sprintf$7) refers to printf7.o(i._printf_core) for _printf_core
    printf7.o(i.__0sprintf$7) refers to printf7.o(i._sputc) for _sputc
    printf7.o(i.__0vfprintf$7) refers to printf7.o(i._printf_core) for _printf_core
    printf7.o(i.__0vfprintf$7) refers to fputc.o(i.fputc) for fputc
    printf7.o(i.__0vprintf$7) refers to printf7.o(i._printf_core) for _printf_core
    printf7.o(i.__0vprintf$7) refers to fputc.o(i.fputc) for fputc
    printf7.o(i.__0vprintf$7) refers to stdout.o(.data) for __stdout
    printf7.o(i.__0vsnprintf$7) refers to printf7.o(i._printf_core) for _printf_core
    printf7.o(i.__0vsnprintf$7) refers to printf7.o(i._snputc) for _snputc
    printf7.o(i.__0vsprintf$7) refers to printf7.o(i._printf_core) for _printf_core
    printf7.o(i.__0vsprintf$7) refers to printf7.o(i._sputc) for _sputc
    printf7.o(i._printf_core) refers to printf7.o(i._printf_pre_padding) for _printf_pre_padding
    printf7.o(i._printf_core) refers to printf7.o(i._printf_post_padding) for _printf_post_padding
    printf7.o(i._printf_core) refers to uldiv.o(.text) for __aeabi_uldivmod
    printf8.o(i.__0fprintf$8) refers to printf8.o(i._printf_core) for _printf_core
    printf8.o(i.__0fprintf$8) refers to fputc.o(i.fputc) for fputc
    printf8.o(i.__0printf$8) refers to printf8.o(i._printf_core) for _printf_core
    printf8.o(i.__0printf$8) refers to fputc.o(i.fputc) for fputc
    printf8.o(i.__0printf$8) refers to stdout.o(.data) for __stdout
    printf8.o(i.__0snprintf$8) refers to printf8.o(i._printf_core) for _printf_core
    printf8.o(i.__0snprintf$8) refers to printf8.o(i._snputc) for _snputc
    printf8.o(i.__0sprintf$8) refers to printf8.o(i._printf_core) for _printf_core
    printf8.o(i.__0sprintf$8) refers to printf8.o(i._sputc) for _sputc
    printf8.o(i.__0vfprintf$8) refers to printf8.o(i._printf_core) for _printf_core
    printf8.o(i.__0vfprintf$8) refers to fputc.o(i.fputc) for fputc
    printf8.o(i.__0vprintf$8) refers to printf8.o(i._printf_core) for _printf_core
    printf8.o(i.__0vprintf$8) refers to fputc.o(i.fputc) for fputc
    printf8.o(i.__0vprintf$8) refers to stdout.o(.data) for __stdout
    printf8.o(i.__0vsnprintf$8) refers to printf8.o(i._printf_core) for _printf_core
    printf8.o(i.__0vsnprintf$8) refers to printf8.o(i._snputc) for _snputc
    printf8.o(i.__0vsprintf$8) refers to printf8.o(i._printf_core) for _printf_core
    printf8.o(i.__0vsprintf$8) refers to printf8.o(i._sputc) for _sputc
    printf8.o(i._printf_core) refers to printf8.o(i._printf_pre_padding) for _printf_pre_padding
    printf8.o(i._printf_core) refers to printf8.o(i._printf_post_padding) for _printf_post_padding
    printf8.o(i._printf_core) refers to uldiv.o(.text) for __aeabi_uldivmod
    printfa.o(i.__0fprintf) refers (Special) to iusefp.o(.text) for __I$use$fp
    printfa.o(i.__0fprintf) refers to printfa.o(i._printf_core) for _printf_core
    printfa.o(i.__0fprintf) refers to fputc.o(i.fputc) for fputc
    printfa.o(i.__0printf) refers (Special) to iusefp.o(.text) for __I$use$fp
    printfa.o(i.__0printf) refers to printfa.o(i._printf_core) for _printf_core
    printfa.o(i.__0printf) refers to fputc.o(i.fputc) for fputc
    printfa.o(i.__0printf) refers to stdout.o(.data) for __stdout
    printfa.o(i.__0snprintf) refers (Special) to iusefp.o(.text) for __I$use$fp
    printfa.o(i.__0snprintf) refers to printfa.o(i._printf_core) for _printf_core
    printfa.o(i.__0snprintf) refers to printfa.o(i._snputc) for _snputc
    printfa.o(i.__0sprintf) refers (Special) to iusefp.o(.text) for __I$use$fp
    printfa.o(i.__0sprintf) refers to printfa.o(i._printf_core) for _printf_core
    printfa.o(i.__0sprintf) refers to printfa.o(i._sputc) for _sputc
    printfa.o(i.__0vfprintf) refers (Special) to iusefp.o(.text) for __I$use$fp
    printfa.o(i.__0vfprintf) refers to printfa.o(i._printf_core) for _printf_core
    printfa.o(i.__0vfprintf) refers to fputc.o(i.fputc) for fputc
    printfa.o(i.__0vprintf) refers (Special) to iusefp.o(.text) for __I$use$fp
    printfa.o(i.__0vprintf) refers to printfa.o(i._printf_core) for _printf_core
    printfa.o(i.__0vprintf) refers to fputc.o(i.fputc) for fputc
    printfa.o(i.__0vprintf) refers to stdout.o(.data) for __stdout
    printfa.o(i.__0vsnprintf) refers (Special) to iusefp.o(.text) for __I$use$fp
    printfa.o(i.__0vsnprintf) refers to printfa.o(i._printf_core) for _printf_core
    printfa.o(i.__0vsnprintf) refers to printfa.o(i._snputc) for _snputc
    printfa.o(i.__0vsprintf) refers (Special) to iusefp.o(.text) for __I$use$fp
    printfa.o(i.__0vsprintf) refers to printfa.o(i._printf_core) for _printf_core
    printfa.o(i.__0vsprintf) refers to printfa.o(i._sputc) for _sputc
    printfa.o(i._fp_digits) refers (Special) to iusefp.o(.text) for __I$use$fp
    printfa.o(i._fp_digits) refers to dmul.o(.text) for __aeabi_dmul
    printfa.o(i._fp_digits) refers to ddiv.o(.text) for __aeabi_ddiv
    printfa.o(i._fp_digits) refers to cdrcmple.o(.text) for __aeabi_cdrcmple
    printfa.o(i._fp_digits) refers to dadd.o(.text) for __aeabi_dadd
    printfa.o(i._fp_digits) refers to dfixul.o(.text) for __aeabi_d2ulz
    printfa.o(i._fp_digits) refers to uldiv.o(.text) for __aeabi_uldivmod
    printfa.o(i._printf_core) refers (Special) to iusefp.o(.text) for __I$use$fp
    printfa.o(i._printf_core) refers to printfa.o(i._printf_pre_padding) for _printf_pre_padding
    printfa.o(i._printf_core) refers to uldiv.o(.text) for __aeabi_uldivmod
    printfa.o(i._printf_core) refers to printfa.o(i._printf_post_padding) for _printf_post_padding
    printfa.o(i._printf_core) refers to printfa.o(i._fp_digits) for _fp_digits
    printfa.o(i._printf_post_padding) refers (Special) to iusefp.o(.text) for __I$use$fp
    printfa.o(i._printf_pre_padding) refers (Special) to iusefp.o(.text) for __I$use$fp
    printfa.o(i._snputc) refers (Special) to iusefp.o(.text) for __I$use$fp
    printfa.o(i._sputc) refers (Special) to iusefp.o(.text) for __I$use$fp
    cos_i.o(i.__kernel_cos) refers (Special) to iusefp.o(.text) for __I$use$fp
    cos_i.o(i.__kernel_cos) refers to dfixi.o(.text) for __aeabi_d2iz
    cos_i.o(i.__kernel_cos) refers to dmul.o(.text) for __aeabi_dmul
    cos_i.o(i.__kernel_cos) refers to poly.o(i.__kernel_poly) for __kernel_poly
    cos_i.o(i.__kernel_cos) refers to dadd.o(.text) for __aeabi_dsub
    cos_i.o(i.__kernel_cos) refers to dscalb.o(.text) for __ARM_scalbn
    cos_i.o(i.__kernel_cos) refers to cos_i.o(.constdata) for .constdata
    cos_i.o(.constdata) refers (Special) to iusefp.o(.text) for __I$use$fp
    dunder.o(i.__mathlib_dbl_divzero) refers to ddiv.o(.text) for __aeabi_ddiv
    dunder.o(i.__mathlib_dbl_infnan) refers to dscalb.o(.text) for __ARM_scalbn
    dunder.o(i.__mathlib_dbl_infnan2) refers to dadd.o(.text) for __aeabi_dadd
    dunder.o(i.__mathlib_dbl_invalid) refers to ddiv.o(.text) for __aeabi_ddiv
    dunder.o(i.__mathlib_dbl_overflow) refers to dscalb.o(.text) for __ARM_scalbn
    dunder.o(i.__mathlib_dbl_posinfnan) refers to dmul.o(.text) for __aeabi_dmul
    dunder.o(i.__mathlib_dbl_underflow) refers to dscalb.o(.text) for __ARM_scalbn
    rred.o(i.__ieee754_rem_pio2) refers (Special) to iusefp.o(.text) for __I$use$fp
    rred.o(i.__ieee754_rem_pio2) refers to dadd.o(.text) for __aeabi_dsub
    rred.o(i.__ieee754_rem_pio2) refers to dmul.o(.text) for __aeabi_dmul
    rred.o(i.__ieee754_rem_pio2) refers to dfixi.o(.text) for __aeabi_d2iz
    rred.o(i.__ieee754_rem_pio2) refers to dflti.o(.text) for __aeabi_i2d
    rred.o(i.__ieee754_rem_pio2) refers to rred.o(i.__ARM_common_ll_muluu) for __ARM_common_ll_muluu
    rred.o(i.__ieee754_rem_pio2) refers to dfltui.o(.text) for __aeabi_ui2d
    rred.o(i.__ieee754_rem_pio2) refers to dscalb.o(.text) for __ARM_scalbn
    rred.o(i.__ieee754_rem_pio2) refers to rred.o(.constdata) for .constdata
    rred.o(i.__use_accurate_range_reduction) refers (Special) to iusefp.o(.text) for __I$use$fp
    rred.o(.constdata) refers (Special) to iusefp.o(.text) for __I$use$fp
    sin_i.o(i.__kernel_sin) refers (Special) to iusefp.o(.text) for __I$use$fp
    sin_i.o(i.__kernel_sin) refers to fpclassify.o(i.__ARM_fpclassify) for __ARM_fpclassify
    sin_i.o(i.__kernel_sin) refers to dunder.o(i.__mathlib_dbl_underflow) for __mathlib_dbl_underflow
    sin_i.o(i.__kernel_sin) refers to dmul.o(.text) for __aeabi_dmul
    sin_i.o(i.__kernel_sin) refers to poly.o(i.__kernel_poly) for __kernel_poly
    sin_i.o(i.__kernel_sin) refers to dscalb.o(.text) for __ARM_scalbn
    sin_i.o(i.__kernel_sin) refers to dadd.o(.text) for __aeabi_dsub
    sin_i.o(i.__kernel_sin) refers to sin_i.o(.constdata) for .constdata
    sin_i.o(.constdata) refers (Special) to iusefp.o(.text) for __I$use$fp
    entry2.o(.ARM.Collect$$$$00000001) refers to entry2.o(.ARM.Collect$$$$00002712) for __lit__00000000
    entry2.o(.ARM.Collect$$$$00002712) refers to startup_da14585_586.o(STACK) for __initial_sp
    entry2.o(__vectab_stack_and_reset_area) refers to startup_da14585_586.o(STACK) for __initial_sp
    entry2.o(__vectab_stack_and_reset_area) refers to entry.o(.ARM.Collect$$$$00000000) for __main
    entry5.o(.ARM.Collect$$$$00000004) refers to init.o(.text) for __scatterload
    entry9a.o(.ARM.Collect$$$$0000000B) refers to lto-llvm-8ef5f6.o(.text.main) for main
    entry9b.o(.ARM.Collect$$$$0000000C) refers to lto-llvm-8ef5f6.o(.text.main) for main
    fputc.o(i.fputc) refers (Special) to iusesemip.o(.text) for __I$use$semihosting$fputc
    fputc.o(i.fputc) refers (Special) to semi.o(.text) for __semihosting_library_function
    fputc_h.o(i._fputc$hlt) refers (Special) to iusesemip.o(.text) for __I$use$semihosting$fputc
    fputc_h.o(i._fputc$hlt) refers (Special) to semi.o(.text) for __semihosting_library_function
    uldiv.o(.text) refers to llushr.o(.text) for __aeabi_llsr
    errno.o(i.__aeabi_errno_addr) refers to errno.o(.data) for .data
    errno.o(i.__read_errno) refers to errno.o(.data) for .data
    errno.o(i.__set_errno) refers to errno.o(.data) for .data
    dadd.o(.text) refers (Special) to iusefp.o(.text) for __I$use$fp
    dadd.o(.text) refers to llsshr.o(.text) for __aeabi_lasr
    dadd.o(.text) refers to depilogue.o(.text) for _double_epilogue
    dmul.o(.text) refers (Special) to iusefp.o(.text) for __I$use$fp
    dmul.o(.text) refers to depilogue.o(.text) for _double_epilogue
    ddiv.o(.text) refers (Special) to iusefp.o(.text) for __I$use$fp
    ddiv.o(.text) refers to depilogue.o(.text) for _double_round
    dfixul.o(.text) refers (Special) to iusefp.o(.text) for __I$use$fp
    dfixul.o(.text) refers to llushr.o(.text) for __aeabi_llsr
    cdrcmple.o(.text) refers (Special) to iusefp.o(.text) for __I$use$fp
    fpclassify.o(i.__ARM_fpclassify) refers (Special) to iusefp.o(.text) for __I$use$fp
    poly.o(i.__kernel_poly) refers (Special) to iusefp.o(.text) for __I$use$fp
    poly.o(i.__kernel_poly) refers to dmul.o(.text) for __aeabi_dmul
    poly.o(i.__kernel_poly) refers to dadd.o(.text) for __aeabi_dadd
    init.o(.text) refers to entry5.o(.ARM.Collect$$$$00000004) for __main_after_scatterload
    depilogue.o(.text) refers (Special) to iusefp.o(.text) for __I$use$fp
    depilogue.o(.text) refers to depilogue.o(i.__ARM_clz) for __ARM_clz
    depilogue.o(.text) refers to llushr.o(.text) for __aeabi_llsr
    dscalb.o(.text) refers (Special) to iusefp.o(.text) for __I$use$fp
    dflti.o(.text) refers (Special) to iusefp.o(.text) for __I$use$fp
    dflti.o(.text) refers to depilogue.o(.text) for _double_epilogue
    dfltui.o(.text) refers (Special) to iusefp.o(.text) for __I$use$fp
    dfltui.o(.text) refers to depilogue.o(.text) for _double_epilogue
    dfixi.o(.text) refers (Special) to iusefp.o(.text) for __I$use$fp
    dfixi.o(.text) refers to llushr.o(.text) for __aeabi_llsr
    lto-llvm-8ef5f6.o(.ARM.exidxsystem_DA14xxx) refers to lto-llvm-8ef5f6.o(system_DA14xxx) for [Anonymous Symbol]
    lto-llvm-8ef5f6.o(.ARM.exidx.text.HardFault_HandlerC) refers to lto-llvm-8ef5f6.o(.text.HardFault_HandlerC) for [Anonymous Symbol]
    lto-llvm-8ef5f6.o(.ARM.exidx.text.NMI_HandlerC) refers to lto-llvm-8ef5f6.o(.text.NMI_HandlerC) for [Anonymous Symbol]
    lto-llvm-8ef5f6.o(.text.arch_printf_flush) refers to lto-llvm-8ef5f6.o(.bss.retention_mem_area0) for [Anonymous Symbol]
    lto-llvm-8ef5f6.o(.text.arch_printf_flush) refers to lto-llvm-8ef5f6.o(.bss) for [Anonymous Symbol]
    lto-llvm-8ef5f6.o(.ARM.exidx.text.arch_printf_flush) refers to lto-llvm-8ef5f6.o(.text.arch_printf_flush) for [Anonymous Symbol]
    lto-llvm-8ef5f6.o(.text.arch_printf) refers to lto-llvm-8ef5f6.o(.text._puts) for _puts
    lto-llvm-8ef5f6.o(.text.arch_printf) refers to lto-llvm-8ef5f6.o(.text.arch_itoa) for arch_itoa
    lto-llvm-8ef5f6.o(.text.arch_printf) refers to lto-llvm-8ef5f6.o(.text.arch_strlen) for arch_strlen
    lto-llvm-8ef5f6.o(.text.arch_printf) refers to lto-llvm-8ef5f6.o(.text.arch_printf_flush) for arch_printf_flush
    lto-llvm-8ef5f6.o(.text.arch_printf) refers to lto-llvm-8ef5f6.o(.bss.retention_mem_area0) for [Anonymous Symbol]
    lto-llvm-8ef5f6.o(.text.arch_printf) refers to lto-llvm-8ef5f6.o(.bss) for [Anonymous Symbol]
    lto-llvm-8ef5f6.o(.ARM.exidx.text.arch_printf) refers to lto-llvm-8ef5f6.o(.text.arch_printf) for [Anonymous Symbol]
    lto-llvm-8ef5f6.o(.ARM.exidx.text.arch_itoa) refers to lto-llvm-8ef5f6.o(.text.arch_itoa) for [Anonymous Symbol]
    lto-llvm-8ef5f6.o(.ARM.exidx.text._puts) refers to lto-llvm-8ef5f6.o(.text._puts) for [Anonymous Symbol]
    lto-llvm-8ef5f6.o(.ARM.exidx.text.arch_strlen) refers to lto-llvm-8ef5f6.o(.text.arch_strlen) for [Anonymous Symbol]
    lto-llvm-8ef5f6.o(.text.uart_callback) refers to lto-llvm-8ef5f6.o(.text.arch_strlen) for arch_strlen
    lto-llvm-8ef5f6.o(.text.uart_callback) refers to lto-llvm-8ef5f6.o(.text.uart_send) for uart_send
    lto-llvm-8ef5f6.o(.text.uart_callback) refers to lto-llvm-8ef5f6.o(.bss.retention_mem_area0) for [Anonymous Symbol]
    lto-llvm-8ef5f6.o(.ARM.exidx.text.uart_callback) refers to lto-llvm-8ef5f6.o(.text.uart_callback) for [Anonymous Symbol]
    lto-llvm-8ef5f6.o(.text.nvds_get_func) refers to lto-llvm-8ef5f6.o(.bss.retention_mem_area0) for [Anonymous Symbol]
    lto-llvm-8ef5f6.o(.text.nvds_get_func) refers to lto-llvm-8ef5f6.o(.rodata) for [Anonymous Symbol]
    lto-llvm-8ef5f6.o(.ARM.exidx.text.nvds_get_func) refers to lto-llvm-8ef5f6.o(.text.nvds_get_func) for [Anonymous Symbol]
    lto-llvm-8ef5f6.o(.ARM.exidx.text.nvds_init_func) refers to lto-llvm-8ef5f6.o(.text.nvds_init_func) for [Anonymous Symbol]
    lto-llvm-8ef5f6.o(.ARM.exidx.text.nvds_del_func) refers to lto-llvm-8ef5f6.o(.text.nvds_del_func) for [Anonymous Symbol]
    lto-llvm-8ef5f6.o(.ARM.exidx.text.nvds_put_func) refers to lto-llvm-8ef5f6.o(.text.nvds_put_func) for [Anonymous Symbol]
    lto-llvm-8ef5f6.o(.text.main) refers to patch.o(.text) for patch_global_vars_init
    lto-llvm-8ef5f6.o(.text.main) refers to lto-llvm-8ef5f6.o(.text.periph_init) for periph_init
    lto-llvm-8ef5f6.o(.text.main) refers to lto-llvm-8ef5f6.o(.text.rf_regs) for rf_regs
    lto-llvm-8ef5f6.o(.text.main) refers to lto-llvm-8ef5f6.o(.bss.retention_mem_area0) for [Anonymous Symbol]
    lto-llvm-8ef5f6.o(.text.main) refers to lto-llvm-8ef5f6.o(.rodata) for [Anonymous Symbol]
    lto-llvm-8ef5f6.o(.text.main) refers to lto-llvm-8ef5f6.o(.bss.trng_buffer_area_zi) for [Anonymous Symbol]
    lto-llvm-8ef5f6.o(.text.main) refers to lto-llvm-8ef5f6.o(.bss) for [Anonymous Symbol]
    lto-llvm-8ef5f6.o(.text.main) refers to lto-llvm-8ef5f6.o(.text.battery_get_lvl) for battery_get_lvl
    lto-llvm-8ef5f6.o(.text.main) refers to lto-llvm-8ef5f6.o(.text.lld_sleep_init_func) for lld_sleep_init_func
    lto-llvm-8ef5f6.o(.text.main) refers to lto-llvm-8ef5f6.o(.text.arch_printf) for arch_printf
    lto-llvm-8ef5f6.o(.text.main) refers to lto-llvm-8ef5f6.o(.text.get_rc16m_count) for get_rc16m_count
    lto-llvm-8ef5f6.o(.text.main) refers to rf_calibration.o(.text) for rf_calibration_585
    lto-llvm-8ef5f6.o(.text.main) refers to lto-llvm-8ef5f6.o(.text.arch_printf_flush) for arch_printf_flush
    lto-llvm-8ef5f6.o(.text.main) refers to lto-llvm-8ef5f6.o(.text.arch_strlen) for arch_strlen
    lto-llvm-8ef5f6.o(.text.main) refers to lto-llvm-8ef5f6.o(.text.uart_send) for uart_send
    lto-llvm-8ef5f6.o(.text.main) refers to lto-llvm-8ef5f6.o(.text.set_sleep_delay) for set_sleep_delay
    lto-llvm-8ef5f6.o(.text.main) refers to lto-llvm-8ef5f6.o(.rodata.str1.4) for [Anonymous Symbol]
    lto-llvm-8ef5f6.o(.text.main) refers to lto-llvm-8ef5f6.o(.rodata.str1.1) for [Anonymous Symbol]
    lto-llvm-8ef5f6.o(.text.main) refers to lto-llvm-8ef5f6.o(.text.uart_callback) for uart_callback
    lto-llvm-8ef5f6.o(.text.main) refers to lto-llvm-8ef5f6.o(.data) for [Anonymous Symbol]
    lto-llvm-8ef5f6.o(.ARM.exidx.text.main) refers to lto-llvm-8ef5f6.o(.text.main) for [Anonymous Symbol]
    lto-llvm-8ef5f6.o(.ARM.exidx.text.platform_reset_func) refers to lto-llvm-8ef5f6.o(.text.platform_reset_func) for [Anonymous Symbol]
    lto-llvm-8ef5f6.o(.ARM.exidx.text.dbg_init_func_empty) refers to lto-llvm-8ef5f6.o(.text.dbg_init_func_empty) for [Anonymous Symbol]
    lto-llvm-8ef5f6.o(.ARM.exidx.text.dbg_platform_reset_complete_func_empty) refers to lto-llvm-8ef5f6.o(.text.dbg_platform_reset_complete_func_empty) for [Anonymous Symbol]
    lto-llvm-8ef5f6.o(.ARM.exidx.text.crypto_init_func) refers to lto-llvm-8ef5f6.o(.text.crypto_init_func) for [Anonymous Symbol]
    lto-llvm-8ef5f6.o(.ARM.exidx.text.dia_rand_func) refers to lto-llvm-8ef5f6.o(.text.dia_rand_func) for [Anonymous Symbol]
    lto-llvm-8ef5f6.o(.ARM.exidx.text.dia_srand_func) refers to lto-llvm-8ef5f6.o(.text.dia_srand_func) for [Anonymous Symbol]
    lto-llvm-8ef5f6.o(.ARM.exidx.text.ba431_get_rand_func) refers to lto-llvm-8ef5f6.o(.text.ba431_get_rand_func) for [Anonymous Symbol]
    lto-llvm-8ef5f6.o(.text.set_sleep_delay) refers to lto-llvm-8ef5f6.o(.bss.retention_mem_area0) for [Anonymous Symbol]
    lto-llvm-8ef5f6.o(.ARM.exidx.text.set_sleep_delay) refers to lto-llvm-8ef5f6.o(.text.set_sleep_delay) for [Anonymous Symbol]
    lto-llvm-8ef5f6.o(.ARM.exidx.text.get_rc16m_count) refers to lto-llvm-8ef5f6.o(.text.get_rc16m_count) for [Anonymous Symbol]
    lto-llvm-8ef5f6.o(.ARM.exidx.text.lld_sleep_us_2_lpcycles_sel_func) refers to lto-llvm-8ef5f6.o(.text.lld_sleep_us_2_lpcycles_sel_func) for [Anonymous Symbol]
    lto-llvm-8ef5f6.o(.ARM.exidx.text.lld_sleep_lpcycles_2_us_sel_func) refers to lto-llvm-8ef5f6.o(.text.lld_sleep_lpcycles_2_us_sel_func) for [Anonymous Symbol]
    lto-llvm-8ef5f6.o(.text.lld_sleep_init_func) refers to lto-llvm-8ef5f6.o(.text.set_sleep_delay) for set_sleep_delay
    lto-llvm-8ef5f6.o(.ARM.exidx.text.lld_sleep_init_func) refers to lto-llvm-8ef5f6.o(.text.lld_sleep_init_func) for [Anonymous Symbol]
    lto-llvm-8ef5f6.o(.ARM.exidx.text.GPIO_ConfigurePin) refers to lto-llvm-8ef5f6.o(.text.GPIO_ConfigurePin) for [Anonymous Symbol]
    lto-llvm-8ef5f6.o(.ARM.exidx.text.GPIO_SetActive) refers to lto-llvm-8ef5f6.o(.text.GPIO_SetActive) for [Anonymous Symbol]
    lto-llvm-8ef5f6.o(.ARM.exidx.text.GPIOn_Handler) refers to lto-llvm-8ef5f6.o(.text.GPIOn_Handler) for [Anonymous Symbol]
    lto-llvm-8ef5f6.o(.text.GPIO0_Handler) refers to lto-llvm-8ef5f6.o(.text.GPIOn_Handler) for GPIOn_Handler
    lto-llvm-8ef5f6.o(.ARM.exidx.text.GPIO0_Handler) refers to lto-llvm-8ef5f6.o(.text.GPIO0_Handler) for [Anonymous Symbol]
    lto-llvm-8ef5f6.o(.text.GPIO1_Handler) refers to lto-llvm-8ef5f6.o(.text.GPIOn_Handler) for GPIOn_Handler
    lto-llvm-8ef5f6.o(.ARM.exidx.text.GPIO1_Handler) refers to lto-llvm-8ef5f6.o(.text.GPIO1_Handler) for [Anonymous Symbol]
    lto-llvm-8ef5f6.o(.text.GPIO2_Handler) refers to lto-llvm-8ef5f6.o(.text.GPIOn_Handler) for GPIOn_Handler
    lto-llvm-8ef5f6.o(.ARM.exidx.text.GPIO2_Handler) refers to lto-llvm-8ef5f6.o(.text.GPIO2_Handler) for [Anonymous Symbol]
    lto-llvm-8ef5f6.o(.text.GPIO3_Handler) refers to lto-llvm-8ef5f6.o(.text.GPIOn_Handler) for GPIOn_Handler
    lto-llvm-8ef5f6.o(.ARM.exidx.text.GPIO3_Handler) refers to lto-llvm-8ef5f6.o(.text.GPIO3_Handler) for [Anonymous Symbol]
    lto-llvm-8ef5f6.o(.text.GPIO4_Handler) refers to lto-llvm-8ef5f6.o(.text.GPIOn_Handler) for GPIOn_Handler
    lto-llvm-8ef5f6.o(.ARM.exidx.text.GPIO4_Handler) refers to lto-llvm-8ef5f6.o(.text.GPIO4_Handler) for [Anonymous Symbol]
    lto-llvm-8ef5f6.o(.ARM.exidx.text.WKUP_QUADEC_Handler) refers to lto-llvm-8ef5f6.o(.text.WKUP_QUADEC_Handler) for [Anonymous Symbol]
    lto-llvm-8ef5f6.o(.text.battery_get_lvl) refers to lto-llvm-8ef5f6.o(.text.adc_usDelay) for adc_usDelay
    lto-llvm-8ef5f6.o(.text.battery_get_lvl) refers to lto-llvm-8ef5f6.o(.text.adc_get_sample) for adc_get_sample
    lto-llvm-8ef5f6.o(.text.battery_get_lvl) refers to lto-llvm-8ef5f6.o(.text.adc_get_vbat_sample) for adc_get_vbat_sample
    lto-llvm-8ef5f6.o(.ARM.exidx.text.battery_get_lvl) refers to lto-llvm-8ef5f6.o(.text.battery_get_lvl) for [Anonymous Symbol]
    lto-llvm-8ef5f6.o(.ARM.exidx.text.adc_init) refers to lto-llvm-8ef5f6.o(.text.adc_init) for [Anonymous Symbol]
    lto-llvm-8ef5f6.o(.ARM.exidx.text.adc_get_sample) refers to lto-llvm-8ef5f6.o(.text.adc_get_sample) for [Anonymous Symbol]
    lto-llvm-8ef5f6.o(.text.adc_get_vbat_sample) refers to lto-llvm-8ef5f6.o(.text.adc_init) for adc_init
    lto-llvm-8ef5f6.o(.text.adc_get_vbat_sample) refers to lto-llvm-8ef5f6.o(.text.adc_usDelay) for adc_usDelay
    lto-llvm-8ef5f6.o(.text.adc_get_vbat_sample) refers to lto-llvm-8ef5f6.o(.text.adc_get_sample) for adc_get_sample
    lto-llvm-8ef5f6.o(.ARM.exidx.text.adc_get_vbat_sample) refers to lto-llvm-8ef5f6.o(.text.adc_get_vbat_sample) for [Anonymous Symbol]
    lto-llvm-8ef5f6.o(.ARM.exidx.text.adc_usDelay) refers to lto-llvm-8ef5f6.o(.text.adc_usDelay) for [Anonymous Symbol]
    lto-llvm-8ef5f6.o(.ARM.exidx.text.ADC_Handler) refers to lto-llvm-8ef5f6.o(.text.ADC_Handler) for [Anonymous Symbol]
    lto-llvm-8ef5f6.o(.text.spi_cs_high) refers to lto-llvm-8ef5f6.o(.text.GPIO_SetActive) for GPIO_SetActive
    lto-llvm-8ef5f6.o(.text.spi_cs_high) refers to lto-llvm-8ef5f6.o(.bss.retention_mem_area0) for [Anonymous Symbol]
    lto-llvm-8ef5f6.o(.ARM.exidx.text.spi_cs_high) refers to lto-llvm-8ef5f6.o(.text.spi_cs_high) for [Anonymous Symbol]
    lto-llvm-8ef5f6.o(.ARM.exidx.text.spi_set_bitmode) refers to lto-llvm-8ef5f6.o(.text.spi_set_bitmode) for [Anonymous Symbol]
    lto-llvm-8ef5f6.o(.text.spi_cs_low) refers to lto-llvm-8ef5f6.o(.bss.retention_mem_area0) for [Anonymous Symbol]
    lto-llvm-8ef5f6.o(.ARM.exidx.text.spi_cs_low) refers to lto-llvm-8ef5f6.o(.text.spi_cs_low) for [Anonymous Symbol]
    lto-llvm-8ef5f6.o(.ARM.exidx.text.spi_access) refers to lto-llvm-8ef5f6.o(.text.spi_access) for [Anonymous Symbol]
    lto-llvm-8ef5f6.o(.text.spi_transaction) refers to lto-llvm-8ef5f6.o(.text.spi_cs_low) for spi_cs_low
    lto-llvm-8ef5f6.o(.text.spi_transaction) refers to lto-llvm-8ef5f6.o(.text.spi_access) for spi_access
    lto-llvm-8ef5f6.o(.text.spi_transaction) refers to lto-llvm-8ef5f6.o(.text.spi_cs_high) for spi_cs_high
    lto-llvm-8ef5f6.o(.ARM.exidx.text.spi_transaction) refers to lto-llvm-8ef5f6.o(.text.spi_transaction) for [Anonymous Symbol]
    lto-llvm-8ef5f6.o(.text.spi_flash_is_busy) refers to lto-llvm-8ef5f6.o(.text.spi_flash_read_status_reg) for spi_flash_read_status_reg
    lto-llvm-8ef5f6.o(.ARM.exidx.text.spi_flash_is_busy) refers to lto-llvm-8ef5f6.o(.text.spi_flash_is_busy) for [Anonymous Symbol]
    lto-llvm-8ef5f6.o(.text.spi_flash_read_status_reg) refers to lto-llvm-8ef5f6.o(.text.spi_set_bitmode) for spi_set_bitmode
    lto-llvm-8ef5f6.o(.text.spi_flash_read_status_reg) refers to lto-llvm-8ef5f6.o(.text.spi_transaction) for spi_transaction
    lto-llvm-8ef5f6.o(.ARM.exidx.text.spi_flash_read_status_reg) refers to lto-llvm-8ef5f6.o(.text.spi_flash_read_status_reg) for [Anonymous Symbol]
    lto-llvm-8ef5f6.o(.text.spi_flash_wait_till_ready) refers to lto-llvm-8ef5f6.o(.text.spi_flash_read_status_reg) for spi_flash_read_status_reg
    lto-llvm-8ef5f6.o(.ARM.exidx.text.spi_flash_wait_till_ready) refers to lto-llvm-8ef5f6.o(.text.spi_flash_wait_till_ready) for [Anonymous Symbol]
    lto-llvm-8ef5f6.o(.text.spi_flash_release_from_power_down) refers to lto-llvm-8ef5f6.o(.text.spi_cs_low) for spi_cs_low
    lto-llvm-8ef5f6.o(.text.spi_flash_release_from_power_down) refers to lto-llvm-8ef5f6.o(.text.spi_cs_high) for spi_cs_high
    lto-llvm-8ef5f6.o(.text.spi_flash_release_from_power_down) refers to lto-llvm-8ef5f6.o(.text.spi_set_bitmode) for spi_set_bitmode
    lto-llvm-8ef5f6.o(.text.spi_flash_release_from_power_down) refers to lto-llvm-8ef5f6.o(.text.spi_transaction) for spi_transaction
    lto-llvm-8ef5f6.o(.ARM.exidx.text.spi_flash_release_from_power_down) refers to lto-llvm-8ef5f6.o(.text.spi_flash_release_from_power_down) for [Anonymous Symbol]
    lto-llvm-8ef5f6.o(.text.spi_flash_auto_detect) refers to lto-llvm-8ef5f6.o(.text.spi_flash_is_busy) for spi_flash_is_busy
    lto-llvm-8ef5f6.o(.text.spi_flash_auto_detect) refers to lto-llvm-8ef5f6.o(.text.spi_set_bitmode) for spi_set_bitmode
    lto-llvm-8ef5f6.o(.text.spi_flash_auto_detect) refers to lto-llvm-8ef5f6.o(.text.spi_cs_low) for spi_cs_low
    lto-llvm-8ef5f6.o(.text.spi_flash_auto_detect) refers to lto-llvm-8ef5f6.o(.text.spi_cs_high) for spi_cs_high
    lto-llvm-8ef5f6.o(.text.spi_flash_auto_detect) refers to lto-llvm-8ef5f6.o(.text.spi_access) for spi_access
    lto-llvm-8ef5f6.o(.text.spi_flash_auto_detect) refers to lto-llvm-8ef5f6.o(.rodata) for [Anonymous Symbol]
    lto-llvm-8ef5f6.o(.text.spi_flash_auto_detect) refers to lto-llvm-8ef5f6.o(.bss) for [Anonymous Symbol]
    lto-llvm-8ef5f6.o(.ARM.exidx.text.spi_flash_auto_detect) refers to lto-llvm-8ef5f6.o(.text.spi_flash_auto_detect) for [Anonymous Symbol]
    lto-llvm-8ef5f6.o(.text.spi_flash_ultra_deep_power_down) refers to lto-llvm-8ef5f6.o(.text.spi_flash_is_busy) for spi_flash_is_busy
    lto-llvm-8ef5f6.o(.text.spi_flash_ultra_deep_power_down) refers to lto-llvm-8ef5f6.o(.text.spi_set_bitmode) for spi_set_bitmode
    lto-llvm-8ef5f6.o(.text.spi_flash_ultra_deep_power_down) refers to lto-llvm-8ef5f6.o(.text.spi_transaction) for spi_transaction
    lto-llvm-8ef5f6.o(.ARM.exidx.text.spi_flash_ultra_deep_power_down) refers to lto-llvm-8ef5f6.o(.text.spi_flash_ultra_deep_power_down) for [Anonymous Symbol]
    lto-llvm-8ef5f6.o(.text.spi_flash_write_enable) refers to lto-llvm-8ef5f6.o(.text.spi_flash_is_busy) for spi_flash_is_busy
    lto-llvm-8ef5f6.o(.text.spi_flash_write_enable) refers to lto-llvm-8ef5f6.o(.text.spi_set_bitmode) for spi_set_bitmode
    lto-llvm-8ef5f6.o(.text.spi_flash_write_enable) refers to lto-llvm-8ef5f6.o(.text.spi_transaction) for spi_transaction
    lto-llvm-8ef5f6.o(.text.spi_flash_write_enable) refers to lto-llvm-8ef5f6.o(.text.spi_flash_wait_till_ready) for spi_flash_wait_till_ready
    lto-llvm-8ef5f6.o(.text.spi_flash_write_enable) refers to lto-llvm-8ef5f6.o(.text.spi_flash_read_status_reg) for spi_flash_read_status_reg
    lto-llvm-8ef5f6.o(.ARM.exidx.text.spi_flash_write_enable) refers to lto-llvm-8ef5f6.o(.text.spi_flash_write_enable) for [Anonymous Symbol]
    lto-llvm-8ef5f6.o(.text.spi_flash_read_data) refers to lto-llvm-8ef5f6.o(.text.spi_flash_is_busy) for spi_flash_is_busy
    lto-llvm-8ef5f6.o(.text.spi_flash_read_data) refers to lto-llvm-8ef5f6.o(.text.spi_set_bitmode) for spi_set_bitmode
    lto-llvm-8ef5f6.o(.text.spi_flash_read_data) refers to lto-llvm-8ef5f6.o(.text.spi_cs_low) for spi_cs_low
    lto-llvm-8ef5f6.o(.text.spi_flash_read_data) refers to lto-llvm-8ef5f6.o(.text.spi_access) for spi_access
    lto-llvm-8ef5f6.o(.text.spi_flash_read_data) refers to lto-llvm-8ef5f6.o(.text.spi_cs_high) for spi_cs_high
    lto-llvm-8ef5f6.o(.text.spi_flash_read_data) refers to lto-llvm-8ef5f6.o(.bss) for [Anonymous Symbol]
    lto-llvm-8ef5f6.o(.ARM.exidx.text.spi_flash_read_data) refers to lto-llvm-8ef5f6.o(.text.spi_flash_read_data) for [Anonymous Symbol]
    lto-llvm-8ef5f6.o(.text.UART2_Handler) refers to lto-llvm-8ef5f6.o(.text.uart_rx_isr) for uart_rx_isr
    lto-llvm-8ef5f6.o(.text.UART2_Handler) refers to lto-llvm-8ef5f6.o(.text.uart_callback) for uart_callback
    lto-llvm-8ef5f6.o(.text.UART2_Handler) refers to lto-llvm-8ef5f6.o(.bss.retention_mem_area0) for [Anonymous Symbol]
    lto-llvm-8ef5f6.o(.ARM.exidx.text.UART2_Handler) refers to lto-llvm-8ef5f6.o(.text.UART2_Handler) for [Anonymous Symbol]
    lto-llvm-8ef5f6.o(.ARM.exidx.text.uart_rx_isr) refers to lto-llvm-8ef5f6.o(.text.uart_rx_isr) for [Anonymous Symbol]
    lto-llvm-8ef5f6.o(.text.uart_send) refers to lto-llvm-8ef5f6.o(.bss.retention_mem_area0) for [Anonymous Symbol]
    lto-llvm-8ef5f6.o(.ARM.exidx.text.uart_send) refers to lto-llvm-8ef5f6.o(.text.uart_send) for [Anonymous Symbol]
    lto-llvm-8ef5f6.o(.ARM.exidx.text.I2C_Handler) refers to lto-llvm-8ef5f6.o(.text.I2C_Handler) for [Anonymous Symbol]
    lto-llvm-8ef5f6.o(.ARM.exidx.text.SysTick_Handler) refers to lto-llvm-8ef5f6.o(.text.SysTick_Handler) for [Anonymous Symbol]
    lto-llvm-8ef5f6.o(.ARM.exidx.text.systick_wait) refers to lto-llvm-8ef5f6.o(.text.systick_wait) for [Anonymous Symbol]
    lto-llvm-8ef5f6.o(.text.lld_sleep_compensate_func) refers to lto-llvm-8ef5f6.o(.bss.retention_mem_area0) for [Anonymous Symbol]
    lto-llvm-8ef5f6.o(.text.lld_sleep_compensate_func) refers to lto-llvm-8ef5f6.o(.bss) for [Anonymous Symbol]
    lto-llvm-8ef5f6.o(.ARM.exidx.text.lld_sleep_compensate_func) refers to lto-llvm-8ef5f6.o(.text.lld_sleep_compensate_func) for [Anonymous Symbol]
    lto-llvm-8ef5f6.o(.text.BLE_WAKEUP_LP_Handler) refers to lto-llvm-8ef5f6.o(.text.periph_init) for periph_init
    lto-llvm-8ef5f6.o(.text.BLE_WAKEUP_LP_Handler) refers to lto-llvm-8ef5f6.o(.bss.retention_mem_area0) for [Anonymous Symbol]
    lto-llvm-8ef5f6.o(.text.BLE_WAKEUP_LP_Handler) refers to lto-llvm-8ef5f6.o(.bss) for [Anonymous Symbol]
    lto-llvm-8ef5f6.o(.ARM.exidx.text.BLE_WAKEUP_LP_Handler) refers to lto-llvm-8ef5f6.o(.text.BLE_WAKEUP_LP_Handler) for [Anonymous Symbol]
    lto-llvm-8ef5f6.o(.text.rwble_isr) refers to lto-llvm-8ef5f6.o(.text.adc_get_vbat_sample) for adc_get_vbat_sample
    lto-llvm-8ef5f6.o(.text.rwble_isr) refers to lto-llvm-8ef5f6.o(.bss.retention_mem_area0) for [Anonymous Symbol]
    lto-llvm-8ef5f6.o(.ARM.exidx.text.rwble_isr) refers to lto-llvm-8ef5f6.o(.text.rwble_isr) for [Anonymous Symbol]
    lto-llvm-8ef5f6.o(.text.rf_regs) refers to lto-llvm-8ef5f6.o(.bss.retention_mem_area0) for [Anonymous Symbol]
    lto-llvm-8ef5f6.o(.ARM.exidx.text.rf_regs) refers to lto-llvm-8ef5f6.o(.text.rf_regs) for [Anonymous Symbol]
    lto-llvm-8ef5f6.o(.text.rf_init_func) refers to lto-llvm-8ef5f6.o(.text.rf_regs) for rf_regs
    lto-llvm-8ef5f6.o(.text.rf_init_func) refers to lto-llvm-8ef5f6.o(.text.get_rc16m_count) for get_rc16m_count
    lto-llvm-8ef5f6.o(.text.rf_init_func) refers to rf_calibration.o(.text) for rf_calibration_585
    lto-llvm-8ef5f6.o(.text.rf_init_func) refers to lto-llvm-8ef5f6.o(.text.rf_reg_wr) for rf_reg_wr
    lto-llvm-8ef5f6.o(.text.rf_init_func) refers to lto-llvm-8ef5f6.o(.text.rf_reg_rd) for rf_reg_rd
    lto-llvm-8ef5f6.o(.text.rf_init_func) refers to lto-llvm-8ef5f6.o(.text.rf_sleep) for rf_sleep
    lto-llvm-8ef5f6.o(.text.rf_init_func) refers to lto-llvm-8ef5f6.o(.text.rf_txpwr_dbm_get) for rf_txpwr_dbm_get
    lto-llvm-8ef5f6.o(.text.rf_init_func) refers to lto-llvm-8ef5f6.o(.text.RADIOCNTL_Handler) for RADIOCNTL_Handler
    lto-llvm-8ef5f6.o(.text.rf_init_func) refers to lto-llvm-8ef5f6.o(.text.rf_reset) for rf_reset
    lto-llvm-8ef5f6.o(.text.rf_init_func) refers to lto-llvm-8ef5f6.o(.text.rf_rssi_convert) for rf_rssi_convert
    lto-llvm-8ef5f6.o(.text.rf_init_func) refers to lto-llvm-8ef5f6.o(.text.rf_force_agc_enable) for rf_force_agc_enable
    lto-llvm-8ef5f6.o(.text.rf_init_func) refers to lto-llvm-8ef5f6.o(.bss.retention_mem_area0) for [Anonymous Symbol]
    lto-llvm-8ef5f6.o(.ARM.exidx.text.rf_init_func) refers to lto-llvm-8ef5f6.o(.text.rf_init_func) for [Anonymous Symbol]
    lto-llvm-8ef5f6.o(.ARM.exidx.text.rf_reg_rd) refers to lto-llvm-8ef5f6.o(.text.rf_reg_rd) for [Anonymous Symbol]
    lto-llvm-8ef5f6.o(.ARM.exidx.text.rf_reg_wr) refers to lto-llvm-8ef5f6.o(.text.rf_reg_wr) for [Anonymous Symbol]
    lto-llvm-8ef5f6.o(.ARM.exidx.text.rf_txpwr_dbm_get) refers to lto-llvm-8ef5f6.o(.text.rf_txpwr_dbm_get) for [Anonymous Symbol]
    lto-llvm-8ef5f6.o(.ARM.exidx.text.rf_sleep) refers to lto-llvm-8ef5f6.o(.text.rf_sleep) for [Anonymous Symbol]
    lto-llvm-8ef5f6.o(.ARM.exidx.text.rf_reset) refers to lto-llvm-8ef5f6.o(.text.rf_reset) for [Anonymous Symbol]
    lto-llvm-8ef5f6.o(.ARM.exidx.text.RADIOCNTL_Handler) refers to lto-llvm-8ef5f6.o(.text.RADIOCNTL_Handler) for [Anonymous Symbol]
    lto-llvm-8ef5f6.o(.ARM.exidx.text.rf_force_agc_enable) refers to lto-llvm-8ef5f6.o(.text.rf_force_agc_enable) for [Anonymous Symbol]
    lto-llvm-8ef5f6.o(.ARM.exidx.text.rf_rssi_convert) refers to lto-llvm-8ef5f6.o(.text.rf_rssi_convert) for [Anonymous Symbol]
    lto-llvm-8ef5f6.o(.text.rf_reinit_func) refers to lto-llvm-8ef5f6.o(.text.rf_regs) for rf_regs
    lto-llvm-8ef5f6.o(.ARM.exidx.text.rf_reinit_func) refers to lto-llvm-8ef5f6.o(.text.rf_reinit_func) for [Anonymous Symbol]
    lto-llvm-8ef5f6.o(.ARM.exidx.text.get_cfg_handle) refers to lto-llvm-8ef5f6.o(.text.get_cfg_handle) for [Anonymous Symbol]
    lto-llvm-8ef5f6.o(.text.custs1_get_att_handle) refers to lto-llvm-8ef5f6.o(.text.prf_env_get) for prf_env_get
    lto-llvm-8ef5f6.o(.ARM.exidx.text.custs1_get_att_handle) refers to lto-llvm-8ef5f6.o(.text.custs1_get_att_handle) for [Anonymous Symbol]
    lto-llvm-8ef5f6.o(.text.custs1_get_att_idx) refers to lto-llvm-8ef5f6.o(.text.prf_env_get) for prf_env_get
    lto-llvm-8ef5f6.o(.ARM.exidx.text.custs1_get_att_idx) refers to lto-llvm-8ef5f6.o(.text.custs1_get_att_idx) for [Anonymous Symbol]
    lto-llvm-8ef5f6.o(.text.diss_init) refers to lto-llvm-8ef5f6.o(.rodata) for [Anonymous Symbol]
    lto-llvm-8ef5f6.o(.ARM.exidx.text.diss_init) refers to lto-llvm-8ef5f6.o(.text.diss_init) for [Anonymous Symbol]
    lto-llvm-8ef5f6.o(.ARM.exidx.text.diss_destroy) refers to lto-llvm-8ef5f6.o(.text.diss_destroy) for [Anonymous Symbol]
    lto-llvm-8ef5f6.o(.ARM.exidx.text.diss_create) refers to lto-llvm-8ef5f6.o(.text.diss_create) for [Anonymous Symbol]
    lto-llvm-8ef5f6.o(.ARM.exidx.text.diss_cleanup) refers to lto-llvm-8ef5f6.o(.text.diss_cleanup) for [Anonymous Symbol]
    lto-llvm-8ef5f6.o(.ARM.exidx.text.diss_value_to_handle) refers to lto-llvm-8ef5f6.o(.text.diss_value_to_handle) for [Anonymous Symbol]
    lto-llvm-8ef5f6.o(.text.diss_set_value_req_handler) refers to lto-llvm-8ef5f6.o(.text.prf_env_get) for prf_env_get
    lto-llvm-8ef5f6.o(.text.diss_set_value_req_handler) refers to lto-llvm-8ef5f6.o(.text.diss_value_to_handle) for diss_value_to_handle
    lto-llvm-8ef5f6.o(.ARM.exidx.text.diss_set_value_req_handler) refers to lto-llvm-8ef5f6.o(.text.diss_set_value_req_handler) for [Anonymous Symbol]
    lto-llvm-8ef5f6.o(.text.gattc_read_req_ind_handler) refers to lto-llvm-8ef5f6.o(.text.prf_env_get) for prf_env_get
    lto-llvm-8ef5f6.o(.ARM.exidx.text.gattc_read_req_ind_handler) refers to lto-llvm-8ef5f6.o(.text.gattc_read_req_ind_handler) for [Anonymous Symbol]
    lto-llvm-8ef5f6.o(.text.diss_value_cfm_handler) refers to lto-llvm-8ef5f6.o(.text.prf_env_get) for prf_env_get
    lto-llvm-8ef5f6.o(.text.diss_value_cfm_handler) refers to lto-llvm-8ef5f6.o(.text.diss_value_to_handle) for diss_value_to_handle
    lto-llvm-8ef5f6.o(.ARM.exidx.text.diss_value_cfm_handler) refers to lto-llvm-8ef5f6.o(.text.diss_value_cfm_handler) for [Anonymous Symbol]
    lto-llvm-8ef5f6.o(.text.custs1_init) refers to lto-llvm-8ef5f6.o(.text.custs1_att_set_value) for custs1_att_set_value
    lto-llvm-8ef5f6.o(.text.custs1_init) refers to lto-llvm-8ef5f6.o(.rodata.cst4) for [Anonymous Symbol]
    lto-llvm-8ef5f6.o(.text.custs1_init) refers to lto-llvm-8ef5f6.o(.rodata) for [Anonymous Symbol]
    lto-llvm-8ef5f6.o(.ARM.exidx.text.custs1_init) refers to lto-llvm-8ef5f6.o(.text.custs1_init) for [Anonymous Symbol]
    lto-llvm-8ef5f6.o(.ARM.exidx.text.custs1_destroy) refers to lto-llvm-8ef5f6.o(.text.custs1_destroy) for [Anonymous Symbol]
    lto-llvm-8ef5f6.o(.text.custs1_create) refers to lto-llvm-8ef5f6.o(.text.custs1_set_ccc_value) for custs1_set_ccc_value
    lto-llvm-8ef5f6.o(.text.custs1_create) refers to lto-llvm-8ef5f6.o(.rodata) for [Anonymous Symbol]
    lto-llvm-8ef5f6.o(.ARM.exidx.text.custs1_create) refers to lto-llvm-8ef5f6.o(.text.custs1_create) for [Anonymous Symbol]
    lto-llvm-8ef5f6.o(.text.custs1_cleanup) refers to lto-llvm-8ef5f6.o(.text.custs1_set_ccc_value) for custs1_set_ccc_value
    lto-llvm-8ef5f6.o(.text.custs1_cleanup) refers to lto-llvm-8ef5f6.o(.rodata) for [Anonymous Symbol]
    lto-llvm-8ef5f6.o(.ARM.exidx.text.custs1_cleanup) refers to lto-llvm-8ef5f6.o(.text.custs1_cleanup) for [Anonymous Symbol]
    lto-llvm-8ef5f6.o(.text.gattc_read_req_ind_handler.74) refers to lto-llvm-8ef5f6.o(.text.prf_env_get) for prf_env_get
    lto-llvm-8ef5f6.o(.text.gattc_read_req_ind_handler.74) refers to lto-llvm-8ef5f6.o(.text.custs1_get_att_idx) for custs1_get_att_idx
    lto-llvm-8ef5f6.o(.text.gattc_read_req_ind_handler.74) refers to lto-llvm-8ef5f6.o(.text.custs1_att_get_value) for custs1_att_get_value
    lto-llvm-8ef5f6.o(.text.gattc_read_req_ind_handler.74) refers to lto-llvm-8ef5f6.o(.rodata) for [Anonymous Symbol]
    lto-llvm-8ef5f6.o(.ARM.exidx.text.gattc_read_req_ind_handler.74) refers to lto-llvm-8ef5f6.o(.text.gattc_read_req_ind_handler.74) for [Anonymous Symbol]
    lto-llvm-8ef5f6.o(.text.gattc_write_req_ind_handler) refers to lto-llvm-8ef5f6.o(.text.prf_env_get) for prf_env_get
    lto-llvm-8ef5f6.o(.text.gattc_write_req_ind_handler) refers to lto-llvm-8ef5f6.o(.text.custs1_get_att_idx) for custs1_get_att_idx
    lto-llvm-8ef5f6.o(.text.gattc_write_req_ind_handler) refers to lto-llvm-8ef5f6.o(.text.custs1_set_ccc_value) for custs1_set_ccc_value
    lto-llvm-8ef5f6.o(.text.gattc_write_req_ind_handler) refers to lto-llvm-8ef5f6.o(.rodata) for [Anonymous Symbol]
    lto-llvm-8ef5f6.o(.ARM.exidx.text.gattc_write_req_ind_handler) refers to lto-llvm-8ef5f6.o(.text.gattc_write_req_ind_handler) for [Anonymous Symbol]
    lto-llvm-8ef5f6.o(.text.gattc_att_info_req_ind_handler) refers to lto-llvm-8ef5f6.o(.text.prf_env_get) for prf_env_get
    lto-llvm-8ef5f6.o(.ARM.exidx.text.gattc_att_info_req_ind_handler) refers to lto-llvm-8ef5f6.o(.text.gattc_att_info_req_ind_handler) for [Anonymous Symbol]
    lto-llvm-8ef5f6.o(.text.gattc_cmp_evt_handler) refers to lto-llvm-8ef5f6.o(.text.custs1_exe_operation) for custs1_exe_operation
    lto-llvm-8ef5f6.o(.ARM.exidx.text.gattc_cmp_evt_handler) refers to lto-llvm-8ef5f6.o(.text.gattc_cmp_evt_handler) for [Anonymous Symbol]
    lto-llvm-8ef5f6.o(.text.custs1_val_ntf_req_handler) refers to lto-llvm-8ef5f6.o(.text.prf_env_get) for prf_env_get
    lto-llvm-8ef5f6.o(.text.custs1_val_ntf_req_handler) refers to lto-llvm-8ef5f6.o(.text.get_cfg_handle) for get_cfg_handle
    lto-llvm-8ef5f6.o(.text.custs1_val_ntf_req_handler) refers to lto-llvm-8ef5f6.o(.text.custs1_get_att_idx) for custs1_get_att_idx
    lto-llvm-8ef5f6.o(.text.custs1_val_ntf_req_handler) refers to lto-llvm-8ef5f6.o(.text.custs1_exe_operation) for custs1_exe_operation
    lto-llvm-8ef5f6.o(.ARM.exidx.text.custs1_val_ntf_req_handler) refers to lto-llvm-8ef5f6.o(.text.custs1_val_ntf_req_handler) for [Anonymous Symbol]
    lto-llvm-8ef5f6.o(.text.custs1_val_set_req_handler) refers to lto-llvm-8ef5f6.o(.text.prf_env_get) for prf_env_get
    lto-llvm-8ef5f6.o(.ARM.exidx.text.custs1_val_set_req_handler) refers to lto-llvm-8ef5f6.o(.text.custs1_val_set_req_handler) for [Anonymous Symbol]
    lto-llvm-8ef5f6.o(.text.custs1_val_ind_req_handler) refers to lto-llvm-8ef5f6.o(.text.prf_env_get) for prf_env_get
    lto-llvm-8ef5f6.o(.text.custs1_val_ind_req_handler) refers to lto-llvm-8ef5f6.o(.text.get_cfg_handle) for get_cfg_handle
    lto-llvm-8ef5f6.o(.text.custs1_val_ind_req_handler) refers to lto-llvm-8ef5f6.o(.text.custs1_get_att_idx) for custs1_get_att_idx
    lto-llvm-8ef5f6.o(.text.custs1_val_ind_req_handler) refers to lto-llvm-8ef5f6.o(.text.custs1_exe_operation) for custs1_exe_operation
    lto-llvm-8ef5f6.o(.ARM.exidx.text.custs1_val_ind_req_handler) refers to lto-llvm-8ef5f6.o(.text.custs1_val_ind_req_handler) for [Anonymous Symbol]
    lto-llvm-8ef5f6.o(.text.custs1_att_info_rsp_handler) refers to lto-llvm-8ef5f6.o(.text.prf_env_get) for prf_env_get
    lto-llvm-8ef5f6.o(.ARM.exidx.text.custs1_att_info_rsp_handler) refers to lto-llvm-8ef5f6.o(.text.custs1_att_info_rsp_handler) for [Anonymous Symbol]
    lto-llvm-8ef5f6.o(.text.custs1_value_req_rsp_handler) refers to lto-llvm-8ef5f6.o(.text.custs1_get_att_handle) for custs1_get_att_handle
    lto-llvm-8ef5f6.o(.ARM.exidx.text.custs1_value_req_rsp_handler) refers to lto-llvm-8ef5f6.o(.text.custs1_value_req_rsp_handler) for [Anonymous Symbol]
    lto-llvm-8ef5f6.o(.text.custs1_exe_operation) refers to lto-llvm-8ef5f6.o(.text.prf_env_get) for prf_env_get
    lto-llvm-8ef5f6.o(.text.custs1_exe_operation) refers to lto-llvm-8ef5f6.o(.text.custs1_att_get_value) for custs1_att_get_value
    lto-llvm-8ef5f6.o(.ARM.exidx.text.custs1_exe_operation) refers to lto-llvm-8ef5f6.o(.text.custs1_exe_operation) for [Anonymous Symbol]
    lto-llvm-8ef5f6.o(.text.custs1_att_get_value) refers to lto-llvm-8ef5f6.o(.text.prf_env_get) for prf_env_get
    lto-llvm-8ef5f6.o(.ARM.exidx.text.custs1_att_get_value) refers to lto-llvm-8ef5f6.o(.text.custs1_att_get_value) for [Anonymous Symbol]
    lto-llvm-8ef5f6.o(.text.custs1_set_ccc_value) refers to lto-llvm-8ef5f6.o(.text.custs1_att_get_value) for custs1_att_get_value
    lto-llvm-8ef5f6.o(.text.custs1_set_ccc_value) refers to lto-llvm-8ef5f6.o(.text.custs1_att_set_value) for custs1_att_set_value
    lto-llvm-8ef5f6.o(.ARM.exidx.text.custs1_set_ccc_value) refers to lto-llvm-8ef5f6.o(.text.custs1_set_ccc_value) for [Anonymous Symbol]
    lto-llvm-8ef5f6.o(.text.custs1_att_set_value) refers to lto-llvm-8ef5f6.o(.text.prf_env_get) for prf_env_get
    lto-llvm-8ef5f6.o(.ARM.exidx.text.custs1_att_set_value) refers to lto-llvm-8ef5f6.o(.text.custs1_att_set_value) for [Anonymous Symbol]
    lto-llvm-8ef5f6.o(.text.prf_init_func) refers to lto-llvm-8ef5f6.o(.text.prf_itf_get) for prf_itf_get
    lto-llvm-8ef5f6.o(.text.prf_init_func) refers to lto-llvm-8ef5f6.o(.bss.retention_mem_area0) for [Anonymous Symbol]
    lto-llvm-8ef5f6.o(.ARM.exidx.text.prf_init_func) refers to lto-llvm-8ef5f6.o(.text.prf_init_func) for [Anonymous Symbol]
    lto-llvm-8ef5f6.o(.text.prf_itf_get) refers to lto-llvm-8ef5f6.o(.rodata) for [Anonymous Symbol]
    lto-llvm-8ef5f6.o(.ARM.exidx.text.prf_itf_get) refers to lto-llvm-8ef5f6.o(.text.prf_itf_get) for [Anonymous Symbol]
    lto-llvm-8ef5f6.o(.text.prf_add_profile_func) refers to lto-llvm-8ef5f6.o(.text.prf_itf_get) for prf_itf_get
    lto-llvm-8ef5f6.o(.text.prf_add_profile_func) refers to lto-llvm-8ef5f6.o(.bss.retention_mem_area0) for [Anonymous Symbol]
    lto-llvm-8ef5f6.o(.ARM.exidx.text.prf_add_profile_func) refers to lto-llvm-8ef5f6.o(.text.prf_add_profile_func) for [Anonymous Symbol]
    lto-llvm-8ef5f6.o(.text.prf_create_func) refers to lto-llvm-8ef5f6.o(.text.prf_itf_get) for prf_itf_get
    lto-llvm-8ef5f6.o(.text.prf_create_func) refers to lto-llvm-8ef5f6.o(.bss.retention_mem_area0) for [Anonymous Symbol]
    lto-llvm-8ef5f6.o(.ARM.exidx.text.prf_create_func) refers to lto-llvm-8ef5f6.o(.text.prf_create_func) for [Anonymous Symbol]
    lto-llvm-8ef5f6.o(.text.prf_cleanup_func) refers to lto-llvm-8ef5f6.o(.text.prf_itf_get) for prf_itf_get
    lto-llvm-8ef5f6.o(.text.prf_cleanup_func) refers to lto-llvm-8ef5f6.o(.bss.retention_mem_area0) for [Anonymous Symbol]
    lto-llvm-8ef5f6.o(.ARM.exidx.text.prf_cleanup_func) refers to lto-llvm-8ef5f6.o(.text.prf_cleanup_func) for [Anonymous Symbol]
    lto-llvm-8ef5f6.o(.text.prf_env_get) refers to lto-llvm-8ef5f6.o(.bss.retention_mem_area0) for [Anonymous Symbol]
    lto-llvm-8ef5f6.o(.ARM.exidx.text.prf_env_get) refers to lto-llvm-8ef5f6.o(.text.prf_env_get) for [Anonymous Symbol]
    lto-llvm-8ef5f6.o(.text.prf_get_id_from_task_func) refers to lto-llvm-8ef5f6.o(.bss.retention_mem_area0) for [Anonymous Symbol]
    lto-llvm-8ef5f6.o(.ARM.exidx.text.prf_get_id_from_task_func) refers to lto-llvm-8ef5f6.o(.text.prf_get_id_from_task_func) for [Anonymous Symbol]
    lto-llvm-8ef5f6.o(.text.prf_get_task_from_id_func) refers to lto-llvm-8ef5f6.o(.bss.retention_mem_area0) for [Anonymous Symbol]
    lto-llvm-8ef5f6.o(.ARM.exidx.text.prf_get_task_from_id_func) refers to lto-llvm-8ef5f6.o(.text.prf_get_task_from_id_func) for [Anonymous Symbol]
    lto-llvm-8ef5f6.o(.text.suotar_init) refers to lto-llvm-8ef5f6.o(.rodata) for [Anonymous Symbol]
    lto-llvm-8ef5f6.o(.ARM.exidx.text.suotar_init) refers to lto-llvm-8ef5f6.o(.text.suotar_init) for [Anonymous Symbol]
    lto-llvm-8ef5f6.o(.ARM.exidx.text.suotar_destroy) refers to lto-llvm-8ef5f6.o(.text.suotar_destroy) for [Anonymous Symbol]
    lto-llvm-8ef5f6.o(.ARM.exidx.text.suotar_create) refers to lto-llvm-8ef5f6.o(.text.suotar_create) for [Anonymous Symbol]
    lto-llvm-8ef5f6.o(.ARM.exidx.text.suotar_cleanup) refers to lto-llvm-8ef5f6.o(.text.suotar_cleanup) for [Anonymous Symbol]
    lto-llvm-8ef5f6.o(.text.gattc_read_req_ind_handler.101) refers to lto-llvm-8ef5f6.o(.text.prf_env_get) for prf_env_get
    lto-llvm-8ef5f6.o(.ARM.exidx.text.gattc_read_req_ind_handler.101) refers to lto-llvm-8ef5f6.o(.text.gattc_read_req_ind_handler.101) for [Anonymous Symbol]
    lto-llvm-8ef5f6.o(.text.gattc_write_req_ind_handler.102) refers to lto-llvm-8ef5f6.o(.text.prf_env_get) for prf_env_get
    lto-llvm-8ef5f6.o(.ARM.exidx.text.gattc_write_req_ind_handler.102) refers to lto-llvm-8ef5f6.o(.text.gattc_write_req_ind_handler.102) for [Anonymous Symbol]
    lto-llvm-8ef5f6.o(.text.suotar_mem_info_update_req_handler) refers to lto-llvm-8ef5f6.o(.text.prf_env_get) for prf_env_get
    lto-llvm-8ef5f6.o(.ARM.exidx.text.suotar_mem_info_update_req_handler) refers to lto-llvm-8ef5f6.o(.text.suotar_mem_info_update_req_handler) for [Anonymous Symbol]
    lto-llvm-8ef5f6.o(.text.suotar_status_update_req_handler) refers to lto-llvm-8ef5f6.o(.text.prf_env_get) for prf_env_get
    lto-llvm-8ef5f6.o(.ARM.exidx.text.suotar_status_update_req_handler) refers to lto-llvm-8ef5f6.o(.text.suotar_status_update_req_handler) for [Anonymous Symbol]
    lto-llvm-8ef5f6.o(.text.bass_init) refers to lto-llvm-8ef5f6.o(.rodata) for [Anonymous Symbol]
    lto-llvm-8ef5f6.o(.ARM.exidx.text.bass_init) refers to lto-llvm-8ef5f6.o(.text.bass_init) for [Anonymous Symbol]
    lto-llvm-8ef5f6.o(.ARM.exidx.text.bass_destroy) refers to lto-llvm-8ef5f6.o(.text.bass_destroy) for [Anonymous Symbol]
    lto-llvm-8ef5f6.o(.ARM.exidx.text.bass_create) refers to lto-llvm-8ef5f6.o(.text.bass_create) for [Anonymous Symbol]
    lto-llvm-8ef5f6.o(.ARM.exidx.text.bass_cleanup) refers to lto-llvm-8ef5f6.o(.text.bass_cleanup) for [Anonymous Symbol]
    lto-llvm-8ef5f6.o(.text.bass_get_att_idx) refers to lto-llvm-8ef5f6.o(.text.prf_env_get) for prf_env_get
    lto-llvm-8ef5f6.o(.ARM.exidx.text.bass_get_att_idx) refers to lto-llvm-8ef5f6.o(.text.bass_get_att_idx) for [Anonymous Symbol]
    lto-llvm-8ef5f6.o(.text.bass_exe_operation) refers to lto-llvm-8ef5f6.o(.text.prf_env_get) for prf_env_get
    lto-llvm-8ef5f6.o(.text.bass_exe_operation) refers to lto-llvm-8ef5f6.o(.text.bass_notify_batt_lvl) for bass_notify_batt_lvl
    lto-llvm-8ef5f6.o(.ARM.exidx.text.bass_exe_operation) refers to lto-llvm-8ef5f6.o(.text.bass_exe_operation) for [Anonymous Symbol]
    lto-llvm-8ef5f6.o(.text.bass_notify_batt_lvl) refers to lto-llvm-8ef5f6.o(.text.prf_env_get) for prf_env_get
    lto-llvm-8ef5f6.o(.ARM.exidx.text.bass_notify_batt_lvl) refers to lto-llvm-8ef5f6.o(.text.bass_notify_batt_lvl) for [Anonymous Symbol]
    lto-llvm-8ef5f6.o(.text.bass_enable_req_handler) refers to lto-llvm-8ef5f6.o(.text.prf_env_get) for prf_env_get
    lto-llvm-8ef5f6.o(.text.bass_enable_req_handler) refers to lto-llvm-8ef5f6.o(.text.bass_exe_operation) for bass_exe_operation
    lto-llvm-8ef5f6.o(.ARM.exidx.text.bass_enable_req_handler) refers to lto-llvm-8ef5f6.o(.text.bass_enable_req_handler) for [Anonymous Symbol]
    lto-llvm-8ef5f6.o(.text.bass_batt_level_upd_req_handler) refers to lto-llvm-8ef5f6.o(.text.prf_env_get) for prf_env_get
    lto-llvm-8ef5f6.o(.text.bass_batt_level_upd_req_handler) refers to lto-llvm-8ef5f6.o(.text.bass_exe_operation) for bass_exe_operation
    lto-llvm-8ef5f6.o(.ARM.exidx.text.bass_batt_level_upd_req_handler) refers to lto-llvm-8ef5f6.o(.text.bass_batt_level_upd_req_handler) for [Anonymous Symbol]
    lto-llvm-8ef5f6.o(.text.gattc_att_info_req_ind_handler.107) refers to lto-llvm-8ef5f6.o(.text.bass_get_att_idx) for bass_get_att_idx
    lto-llvm-8ef5f6.o(.ARM.exidx.text.gattc_att_info_req_ind_handler.107) refers to lto-llvm-8ef5f6.o(.text.gattc_att_info_req_ind_handler.107) for [Anonymous Symbol]
    lto-llvm-8ef5f6.o(.text.gattc_write_req_ind_handler.108) refers to lto-llvm-8ef5f6.o(.text.bass_get_att_idx) for bass_get_att_idx
    lto-llvm-8ef5f6.o(.text.gattc_write_req_ind_handler.108) refers to lto-llvm-8ef5f6.o(.text.prf_env_get) for prf_env_get
    lto-llvm-8ef5f6.o(.ARM.exidx.text.gattc_write_req_ind_handler.108) refers to lto-llvm-8ef5f6.o(.text.gattc_write_req_ind_handler.108) for [Anonymous Symbol]
    lto-llvm-8ef5f6.o(.text.gattc_read_req_ind_handler.109) refers to lto-llvm-8ef5f6.o(.text.bass_get_att_idx) for bass_get_att_idx
    lto-llvm-8ef5f6.o(.text.gattc_read_req_ind_handler.109) refers to lto-llvm-8ef5f6.o(.text.prf_env_get) for prf_env_get
    lto-llvm-8ef5f6.o(.ARM.exidx.text.gattc_read_req_ind_handler.109) refers to lto-llvm-8ef5f6.o(.text.gattc_read_req_ind_handler.109) for [Anonymous Symbol]
    lto-llvm-8ef5f6.o(.text.gattc_cmp_evt_handler.110) refers to lto-llvm-8ef5f6.o(.text.bass_exe_operation) for bass_exe_operation
    lto-llvm-8ef5f6.o(.ARM.exidx.text.gattc_cmp_evt_handler.110) refers to lto-llvm-8ef5f6.o(.text.gattc_cmp_evt_handler.110) for [Anonymous Symbol]
    lto-llvm-8ef5f6.o(.text.app_db_init_next) refers to lto-llvm-8ef5f6.o(.bss.retention_mem_area0) for [Anonymous Symbol]
    lto-llvm-8ef5f6.o(.text.app_db_init_next) refers to lto-llvm-8ef5f6.o(.rodata) for [Anonymous Symbol]
    lto-llvm-8ef5f6.o(.text.app_db_init_next) refers to lto-llvm-8ef5f6.o(.text.app_custs1_create_db) for app_custs1_create_db
    lto-llvm-8ef5f6.o(.ARM.exidx.text.app_db_init_next) refers to lto-llvm-8ef5f6.o(.text.app_db_init_next) for [Anonymous Symbol]
    lto-llvm-8ef5f6.o(.text.app_easy_gap_disconnect) refers to lto-llvm-8ef5f6.o(.bss.retention_mem_area0) for [Anonymous Symbol]
    lto-llvm-8ef5f6.o(.ARM.exidx.text.app_easy_gap_disconnect) refers to lto-llvm-8ef5f6.o(.text.app_easy_gap_disconnect) for [Anonymous Symbol]
    lto-llvm-8ef5f6.o(.ARM.exidx.text.app_timer_set) refers to lto-llvm-8ef5f6.o(.text.app_timer_set) for [Anonymous Symbol]
    lto-llvm-8ef5f6.o(.text.get_user_prf_srv_perm) refers to lto-llvm-8ef5f6.o(.bss.retention_mem_area0) for [Anonymous Symbol]
    lto-llvm-8ef5f6.o(.ARM.exidx.text.get_user_prf_srv_perm) refers to lto-llvm-8ef5f6.o(.text.get_user_prf_srv_perm) for [Anonymous Symbol]
    lto-llvm-8ef5f6.o(.text.app_gap_process_handler) refers to lto-llvm-8ef5f6.o(.text.app_std_process_event) for app_std_process_event
    lto-llvm-8ef5f6.o(.text.app_gap_process_handler) refers to lto-llvm-8ef5f6.o(.rodata) for [Anonymous Symbol]
    lto-llvm-8ef5f6.o(.ARM.exidx.text.app_gap_process_handler) refers to lto-llvm-8ef5f6.o(.text.app_gap_process_handler) for [Anonymous Symbol]
    lto-llvm-8ef5f6.o(.ARM.exidx.text.gapm_device_ready_ind_handler) refers to lto-llvm-8ef5f6.o(.text.gapm_device_ready_ind_handler) for [Anonymous Symbol]
    lto-llvm-8ef5f6.o(.text.gapm_cmp_evt_handler) refers to lto-llvm-8ef5f6.o(.text.user_catch_rest_hndl) for user_catch_rest_hndl
    lto-llvm-8ef5f6.o(.text.gapm_cmp_evt_handler) refers to lto-llvm-8ef5f6.o(.text.app_db_init_next) for app_db_init_next
    lto-llvm-8ef5f6.o(.text.gapm_cmp_evt_handler) refers to lto-llvm-8ef5f6.o(.text.user_app_adv_start) for user_app_adv_start
    lto-llvm-8ef5f6.o(.text.gapm_cmp_evt_handler) refers to lto-llvm-8ef5f6.o(.bss.retention_mem_area0) for [Anonymous Symbol]
    lto-llvm-8ef5f6.o(.ARM.exidx.text.gapm_cmp_evt_handler) refers to lto-llvm-8ef5f6.o(.text.gapm_cmp_evt_handler) for [Anonymous Symbol]
    lto-llvm-8ef5f6.o(.text.gapc_cmp_evt_handler) refers to lto-llvm-8ef5f6.o(.text.user_catch_rest_hndl) for user_catch_rest_hndl
    lto-llvm-8ef5f6.o(.ARM.exidx.text.gapc_cmp_evt_handler) refers to lto-llvm-8ef5f6.o(.text.gapc_cmp_evt_handler) for [Anonymous Symbol]
    lto-llvm-8ef5f6.o(.text.gapc_connection_req_ind_handler) refers to lto-llvm-8ef5f6.o(.text.app_easy_timer_cancel) for app_easy_timer_cancel
    lto-llvm-8ef5f6.o(.text.gapc_connection_req_ind_handler) refers to lto-llvm-8ef5f6.o(.text.app_easy_timer) for app_easy_timer
    lto-llvm-8ef5f6.o(.text.gapc_connection_req_ind_handler) refers to lto-llvm-8ef5f6.o(.text.arch_printf) for arch_printf
    lto-llvm-8ef5f6.o(.text.gapc_connection_req_ind_handler) refers to lto-llvm-8ef5f6.o(.text.user_app_adv_start) for user_app_adv_start
    lto-llvm-8ef5f6.o(.text.gapc_connection_req_ind_handler) refers to lto-llvm-8ef5f6.o(.bss.retention_mem_area0) for [Anonymous Symbol]
    lto-llvm-8ef5f6.o(.text.gapc_connection_req_ind_handler) refers to lto-llvm-8ef5f6.o(.text.param_update_request_timer_cb) for param_update_request_timer_cb
    lto-llvm-8ef5f6.o(.text.gapc_connection_req_ind_handler) refers to lto-llvm-8ef5f6.o(.rodata) for [Anonymous Symbol]
    lto-llvm-8ef5f6.o(.ARM.exidx.text.gapc_connection_req_ind_handler) refers to lto-llvm-8ef5f6.o(.text.gapc_connection_req_ind_handler) for [Anonymous Symbol]
    lto-llvm-8ef5f6.o(.text.gapc_disconnect_ind_handler) refers to lto-llvm-8ef5f6.o(.text.app_easy_timer_cancel) for app_easy_timer_cancel
    lto-llvm-8ef5f6.o(.text.gapc_disconnect_ind_handler) refers to lto-llvm-8ef5f6.o(.text.mnf_data_update) for mnf_data_update
    lto-llvm-8ef5f6.o(.text.gapc_disconnect_ind_handler) refers to lto-llvm-8ef5f6.o(.text.user_app_adv_start) for user_app_adv_start
    lto-llvm-8ef5f6.o(.text.gapc_disconnect_ind_handler) refers to lto-llvm-8ef5f6.o(.bss.retention_mem_area0) for [Anonymous Symbol]
    lto-llvm-8ef5f6.o(.ARM.exidx.text.gapc_disconnect_ind_handler) refers to lto-llvm-8ef5f6.o(.text.gapc_disconnect_ind_handler) for [Anonymous Symbol]
    lto-llvm-8ef5f6.o(.text.gapc_get_dev_info_req_ind_handler) refers to lto-llvm-8ef5f6.o(.bss.retention_mem_area0) for [Anonymous Symbol]
    lto-llvm-8ef5f6.o(.ARM.exidx.text.gapc_get_dev_info_req_ind_handler) refers to lto-llvm-8ef5f6.o(.text.gapc_get_dev_info_req_ind_handler) for [Anonymous Symbol]
    lto-llvm-8ef5f6.o(.text.gapc_set_dev_info_req_ind_handler) refers to lto-llvm-8ef5f6.o(.bss.retention_mem_area0) for [Anonymous Symbol]
    lto-llvm-8ef5f6.o(.ARM.exidx.text.gapc_set_dev_info_req_ind_handler) refers to lto-llvm-8ef5f6.o(.text.gapc_set_dev_info_req_ind_handler) for [Anonymous Symbol]
    lto-llvm-8ef5f6.o(.text.gapm_profile_added_ind_handler) refers to lto-llvm-8ef5f6.o(.text.app_db_init_next) for app_db_init_next
    lto-llvm-8ef5f6.o(.text.gapm_profile_added_ind_handler) refers to lto-llvm-8ef5f6.o(.text.user_app_adv_start) for user_app_adv_start
    lto-llvm-8ef5f6.o(.text.gapm_profile_added_ind_handler) refers to lto-llvm-8ef5f6.o(.text.app_easy_timer) for app_easy_timer
    lto-llvm-8ef5f6.o(.text.gapm_profile_added_ind_handler) refers to lto-llvm-8ef5f6.o(.text.spi_flash_peripheral_init) for spi_flash_peripheral_init
    lto-llvm-8ef5f6.o(.text.gapm_profile_added_ind_handler) refers to lto-llvm-8ef5f6.o(.text.spi_flash_read_data) for spi_flash_read_data
    lto-llvm-8ef5f6.o(.text.gapm_profile_added_ind_handler) refers to lto-llvm-8ef5f6.o(.text.spi_flash_ultra_deep_power_down) for spi_flash_ultra_deep_power_down
    lto-llvm-8ef5f6.o(.text.gapm_profile_added_ind_handler) refers to lto-llvm-8ef5f6.o(.text.app_batt_lvl) for app_batt_lvl
    lto-llvm-8ef5f6.o(.text.gapm_profile_added_ind_handler) refers to lto-llvm-8ef5f6.o(.text.arch_printf) for arch_printf
    lto-llvm-8ef5f6.o(.text.gapm_profile_added_ind_handler) refers to lto-llvm-8ef5f6.o(.text.do_min_work_with_analog_clock) for do_min_work_with_analog_clock
    lto-llvm-8ef5f6.o(.text.gapm_profile_added_ind_handler) refers to lto-llvm-8ef5f6.o(.bss.retention_mem_area0) for [Anonymous Symbol]
    lto-llvm-8ef5f6.o(.ARM.exidx.text.gapm_profile_added_ind_handler) refers to lto-llvm-8ef5f6.o(.text.gapm_profile_added_ind_handler) for [Anonymous Symbol]
    lto-llvm-8ef5f6.o(.ARM.exidx.text.gapm_adv_report_ind_handler) refers to lto-llvm-8ef5f6.o(.text.gapm_adv_report_ind_handler) for [Anonymous Symbol]
    lto-llvm-8ef5f6.o(.ARM.exidx.text.gapc_param_update_req_ind_handler) refers to lto-llvm-8ef5f6.o(.text.gapc_param_update_req_ind_handler) for [Anonymous Symbol]
    lto-llvm-8ef5f6.o(.ARM.exidx.text.gapc_le_pkt_size_ind_handler) refers to lto-llvm-8ef5f6.o(.text.gapc_le_pkt_size_ind_handler) for [Anonymous Symbol]
    lto-llvm-8ef5f6.o(.ARM.exidx.text.gattc_svc_changed_cfg_ind_handler) refers to lto-llvm-8ef5f6.o(.text.gattc_svc_changed_cfg_ind_handler) for [Anonymous Symbol]
    lto-llvm-8ef5f6.o(.ARM.exidx.text.gapc_peer_features_ind_handler) refers to lto-llvm-8ef5f6.o(.text.gapc_peer_features_ind_handler) for [Anonymous Symbol]
    lto-llvm-8ef5f6.o(.ARM.exidx.text.gapc_security_ind_handler) refers to lto-llvm-8ef5f6.o(.text.gapc_security_ind_handler) for [Anonymous Symbol]
    lto-llvm-8ef5f6.o(.text.app_sec_process_handler) refers to lto-llvm-8ef5f6.o(.text.app_std_process_event) for app_std_process_event
    lto-llvm-8ef5f6.o(.text.app_sec_process_handler) refers to lto-llvm-8ef5f6.o(.rodata) for [Anonymous Symbol]
    lto-llvm-8ef5f6.o(.ARM.exidx.text.app_sec_process_handler) refers to lto-llvm-8ef5f6.o(.text.app_sec_process_handler) for [Anonymous Symbol]
    lto-llvm-8ef5f6.o(.text.gapc_bond_req_ind_handler) refers to lto-llvm-8ef5f6.o(.text.app_fill_random_byte_array) for app_fill_random_byte_array
    lto-llvm-8ef5f6.o(.text.gapc_bond_req_ind_handler) refers to lto-llvm-8ef5f6.o(.text.ltk_exch_create_msg) for ltk_exch_create_msg
    lto-llvm-8ef5f6.o(.text.gapc_bond_req_ind_handler) refers to lto-llvm-8ef5f6.o(.text.app_easy_security_tk_exch) for app_easy_security_tk_exch
    lto-llvm-8ef5f6.o(.text.gapc_bond_req_ind_handler) refers to lto-llvm-8ef5f6.o(.bss.retention_mem_area0) for [Anonymous Symbol]
    lto-llvm-8ef5f6.o(.text.gapc_bond_req_ind_handler) refers to lto-llvm-8ef5f6.o(.rodata) for [Anonymous Symbol]
    lto-llvm-8ef5f6.o(.ARM.exidx.text.gapc_bond_req_ind_handler) refers to lto-llvm-8ef5f6.o(.text.gapc_bond_req_ind_handler) for [Anonymous Symbol]
    lto-llvm-8ef5f6.o(.text.gapc_bond_ind_handler) refers to lto-llvm-8ef5f6.o(.text.app_easy_gap_disconnect) for app_easy_gap_disconnect
    lto-llvm-8ef5f6.o(.text.gapc_bond_ind_handler) refers to lto-llvm-8ef5f6.o(.text.user_catch_rest_hndl) for user_catch_rest_hndl
    lto-llvm-8ef5f6.o(.text.gapc_bond_ind_handler) refers to lto-llvm-8ef5f6.o(.text.arch_printf) for arch_printf
    lto-llvm-8ef5f6.o(.text.gapc_bond_ind_handler) refers to lto-llvm-8ef5f6.o(.bss.retention_mem_area0) for [Anonymous Symbol]
    lto-llvm-8ef5f6.o(.ARM.exidx.text.gapc_bond_ind_handler) refers to lto-llvm-8ef5f6.o(.text.gapc_bond_ind_handler) for [Anonymous Symbol]
    lto-llvm-8ef5f6.o(.ARM.exidx.text.gapc_encrypt_req_ind_handler) refers to lto-llvm-8ef5f6.o(.text.gapc_encrypt_req_ind_handler) for [Anonymous Symbol]
    lto-llvm-8ef5f6.o(.text.gapc_encrypt_ind_handler) refers to lto-llvm-8ef5f6.o(.bss.retention_mem_area0) for [Anonymous Symbol]
    lto-llvm-8ef5f6.o(.ARM.exidx.text.gapc_encrypt_ind_handler) refers to lto-llvm-8ef5f6.o(.text.gapc_encrypt_ind_handler) for [Anonymous Symbol]
    lto-llvm-8ef5f6.o(.ARM.exidx.text.gapm_addr_solved_ind_handler) refers to lto-llvm-8ef5f6.o(.text.gapm_addr_solved_ind_handler) for [Anonymous Symbol]
    lto-llvm-8ef5f6.o(.ARM.exidx.text.gapm_ral_size_ind_handler) refers to lto-llvm-8ef5f6.o(.text.gapm_ral_size_ind_handler) for [Anonymous Symbol]
    lto-llvm-8ef5f6.o(.ARM.exidx.text.gapm_ral_addr_ind_handler) refers to lto-llvm-8ef5f6.o(.text.gapm_ral_addr_ind_handler) for [Anonymous Symbol]
    lto-llvm-8ef5f6.o(.text.app_bass_create_db) refers to lto-llvm-8ef5f6.o(.text.get_user_prf_srv_perm) for get_user_prf_srv_perm
    lto-llvm-8ef5f6.o(.ARM.exidx.text.app_bass_create_db) refers to lto-llvm-8ef5f6.o(.text.app_bass_create_db) for [Anonymous Symbol]
    lto-llvm-8ef5f6.o(.text.app_bass_enable) refers to lto-llvm-8ef5f6.o(.bss.retention_mem_area0) for [Anonymous Symbol]
    lto-llvm-8ef5f6.o(.ARM.exidx.text.app_bass_enable) refers to lto-llvm-8ef5f6.o(.text.app_bass_enable) for [Anonymous Symbol]
    lto-llvm-8ef5f6.o(.text.app_batt_lvl) refers to lto-llvm-8ef5f6.o(.text.battery_get_lvl) for battery_get_lvl
    lto-llvm-8ef5f6.o(.text.app_batt_lvl) refers to lto-llvm-8ef5f6.o(.bss.retention_mem_area0) for [Anonymous Symbol]
    lto-llvm-8ef5f6.o(.ARM.exidx.text.app_batt_lvl) refers to lto-llvm-8ef5f6.o(.text.app_batt_lvl) for [Anonymous Symbol]
    lto-llvm-8ef5f6.o(.text.app_bass_process_handler) refers to lto-llvm-8ef5f6.o(.text.app_std_process_event) for app_std_process_event
    lto-llvm-8ef5f6.o(.text.app_bass_process_handler) refers to lto-llvm-8ef5f6.o(.rodata) for [Anonymous Symbol]
    lto-llvm-8ef5f6.o(.ARM.exidx.text.app_bass_process_handler) refers to lto-llvm-8ef5f6.o(.text.app_bass_process_handler) for [Anonymous Symbol]
    lto-llvm-8ef5f6.o(.ARM.exidx.text.bass_enable_rsp_handler) refers to lto-llvm-8ef5f6.o(.text.bass_enable_rsp_handler) for [Anonymous Symbol]
    lto-llvm-8ef5f6.o(.ARM.exidx.text.bass_batt_level_upd_rsp_handler) refers to lto-llvm-8ef5f6.o(.text.bass_batt_level_upd_rsp_handler) for [Anonymous Symbol]
    lto-llvm-8ef5f6.o(.ARM.exidx.text.bass_batt_level_ntf_cfg_ind_handler) refers to lto-llvm-8ef5f6.o(.text.bass_batt_level_ntf_cfg_ind_handler) for [Anonymous Symbol]
    lto-llvm-8ef5f6.o(.text.app_bass_timer_handler) refers to lto-llvm-8ef5f6.o(.text.app_batt_lvl) for app_batt_lvl
    lto-llvm-8ef5f6.o(.text.app_bass_timer_handler) refers to lto-llvm-8ef5f6.o(.text.app_timer_set) for app_timer_set
    lto-llvm-8ef5f6.o(.text.app_bass_timer_handler) refers to lto-llvm-8ef5f6.o(.bss.retention_mem_area0) for [Anonymous Symbol]
    lto-llvm-8ef5f6.o(.ARM.exidx.text.app_bass_timer_handler) refers to lto-llvm-8ef5f6.o(.text.app_bass_timer_handler) for [Anonymous Symbol]
    lto-llvm-8ef5f6.o(.text.app_bass_alert_timer_handler) refers to lto-llvm-8ef5f6.o(.text.app_timer_set) for app_timer_set
    lto-llvm-8ef5f6.o(.text.app_bass_alert_timer_handler) refers to lto-llvm-8ef5f6.o(.bss.retention_mem_area0) for [Anonymous Symbol]
    lto-llvm-8ef5f6.o(.ARM.exidx.text.app_bass_alert_timer_handler) refers to lto-llvm-8ef5f6.o(.text.app_bass_alert_timer_handler) for [Anonymous Symbol]
    lto-llvm-8ef5f6.o(.text.app_bass_connect_timer_handler) refers to lto-llvm-8ef5f6.o(.bss.retention_mem_area0) for [Anonymous Symbol]
    lto-llvm-8ef5f6.o(.ARM.exidx.text.app_bass_connect_timer_handler) refers to lto-llvm-8ef5f6.o(.text.app_bass_connect_timer_handler) for [Anonymous Symbol]
    lto-llvm-8ef5f6.o(.text.app_diss_create_db) refers to lto-llvm-8ef5f6.o(.text.get_user_prf_srv_perm) for get_user_prf_srv_perm
    lto-llvm-8ef5f6.o(.ARM.exidx.text.app_diss_create_db) refers to lto-llvm-8ef5f6.o(.text.app_diss_create_db) for [Anonymous Symbol]
    lto-llvm-8ef5f6.o(.text.app_diss_process_handler) refers to lto-llvm-8ef5f6.o(.text.app_std_process_event) for app_std_process_event
    lto-llvm-8ef5f6.o(.text.app_diss_process_handler) refers to lto-llvm-8ef5f6.o(.rodata) for [Anonymous Symbol]
    lto-llvm-8ef5f6.o(.ARM.exidx.text.app_diss_process_handler) refers to lto-llvm-8ef5f6.o(.text.app_diss_process_handler) for [Anonymous Symbol]
    lto-llvm-8ef5f6.o(.text.diss_value_req_ind_handler) refers to lto-llvm-8ef5f6.o(.rodata.str1.1) for [Anonymous Symbol]
    lto-llvm-8ef5f6.o(.ARM.exidx.text.diss_value_req_ind_handler) refers to lto-llvm-8ef5f6.o(.text.diss_value_req_ind_handler) for [Anonymous Symbol]
    lto-llvm-8ef5f6.o(.text.app_suotar_create_db) refers to lto-llvm-8ef5f6.o(.text.get_user_prf_srv_perm) for get_user_prf_srv_perm
    lto-llvm-8ef5f6.o(.ARM.exidx.text.app_suotar_create_db) refers to lto-llvm-8ef5f6.o(.text.app_suotar_create_db) for [Anonymous Symbol]
    lto-llvm-8ef5f6.o(.ARM.exidx.text.suotar_send_status_update_req) refers to lto-llvm-8ef5f6.o(.text.suotar_send_status_update_req) for [Anonymous Symbol]
    lto-llvm-8ef5f6.o(.text.app_suotar_stop) refers to lto-llvm-8ef5f6.o(.text.spi_cs_high) for spi_cs_high
    lto-llvm-8ef5f6.o(.text.app_suotar_stop) refers to lto-llvm-8ef5f6.o(.text.on_suotar_status_change) for on_suotar_status_change
    lto-llvm-8ef5f6.o(.text.app_suotar_stop) refers to lto-llvm-8ef5f6.o(.bss.retention_mem_area0) for [Anonymous Symbol]
    lto-llvm-8ef5f6.o(.ARM.exidx.text.app_suotar_stop) refers to lto-llvm-8ef5f6.o(.text.app_suotar_stop) for [Anonymous Symbol]
    lto-llvm-8ef5f6.o(.text.app_suotar_spi_config) refers to lto-llvm-8ef5f6.o(.bss.retention_mem_area0) for [Anonymous Symbol]
    lto-llvm-8ef5f6.o(.text.app_suotar_spi_config) refers to lto-llvm-8ef5f6.o(.text.GPIO_ConfigurePin) for GPIO_ConfigurePin
    lto-llvm-8ef5f6.o(.ARM.exidx.text.app_suotar_spi_config) refers to lto-llvm-8ef5f6.o(.text.app_suotar_spi_config) for [Anonymous Symbol]
    lto-llvm-8ef5f6.o(.text.app_spi_flash_init) refers to lto-llvm-8ef5f6.o(.text.spi_flash_release_from_power_down) for spi_flash_release_from_power_down
    lto-llvm-8ef5f6.o(.text.app_spi_flash_init) refers to lto-llvm-8ef5f6.o(.text.spi_flash_auto_detect) for spi_flash_auto_detect
    lto-llvm-8ef5f6.o(.ARM.exidx.text.app_spi_flash_init) refers to lto-llvm-8ef5f6.o(.text.app_spi_flash_init) for [Anonymous Symbol]
    lto-llvm-8ef5f6.o(.text.app_flash_write_data) refers to lto-llvm-8ef5f6.o(.text.app_erase_flash_sectors) for app_erase_flash_sectors
    lto-llvm-8ef5f6.o(.text.app_flash_write_data) refers to lto-llvm-8ef5f6.o(.text.spi_set_bitmode) for spi_set_bitmode
    lto-llvm-8ef5f6.o(.text.app_flash_write_data) refers to lto-llvm-8ef5f6.o(.text.spi_flash_is_busy) for spi_flash_is_busy
    lto-llvm-8ef5f6.o(.text.app_flash_write_data) refers to lto-llvm-8ef5f6.o(.text.spi_flash_write_enable) for spi_flash_write_enable
    lto-llvm-8ef5f6.o(.text.app_flash_write_data) refers to lto-llvm-8ef5f6.o(.text.spi_cs_low) for spi_cs_low
    lto-llvm-8ef5f6.o(.text.app_flash_write_data) refers to lto-llvm-8ef5f6.o(.text.spi_access) for spi_access
    lto-llvm-8ef5f6.o(.text.app_flash_write_data) refers to lto-llvm-8ef5f6.o(.text.spi_cs_high) for spi_cs_high
    lto-llvm-8ef5f6.o(.text.app_flash_write_data) refers to lto-llvm-8ef5f6.o(.text.spi_flash_wait_till_ready) for spi_flash_wait_till_ready
    lto-llvm-8ef5f6.o(.text.app_flash_write_data) refers to lto-llvm-8ef5f6.o(.bss) for [Anonymous Symbol]
    lto-llvm-8ef5f6.o(.ARM.exidx.text.app_flash_write_data) refers to lto-llvm-8ef5f6.o(.text.app_flash_write_data) for [Anonymous Symbol]
    lto-llvm-8ef5f6.o(.text.app_erase_flash_sectors) refers to lto-llvm-8ef5f6.o(.text.spi_flash_is_busy) for spi_flash_is_busy
    lto-llvm-8ef5f6.o(.text.app_erase_flash_sectors) refers to lto-llvm-8ef5f6.o(.text.spi_flash_write_enable) for spi_flash_write_enable
    lto-llvm-8ef5f6.o(.text.app_erase_flash_sectors) refers to lto-llvm-8ef5f6.o(.text.spi_set_bitmode) for spi_set_bitmode
    lto-llvm-8ef5f6.o(.text.app_erase_flash_sectors) refers to lto-llvm-8ef5f6.o(.text.spi_transaction) for spi_transaction
    lto-llvm-8ef5f6.o(.text.app_erase_flash_sectors) refers to lto-llvm-8ef5f6.o(.text.spi_flash_read_status_reg) for spi_flash_read_status_reg
    lto-llvm-8ef5f6.o(.ARM.exidx.text.app_erase_flash_sectors) refers to lto-llvm-8ef5f6.o(.text.app_erase_flash_sectors) for [Anonymous Symbol]
    lto-llvm-8ef5f6.o(.ARM.exidx.text.suotar_send_mem_info_update_req) refers to lto-llvm-8ef5f6.o(.text.suotar_send_mem_info_update_req) for [Anonymous Symbol]
    lto-llvm-8ef5f6.o(.text.app_read_ext_mem) refers to lto-llvm-8ef5f6.o(.text.spi_flash_read_data) for spi_flash_read_data
    lto-llvm-8ef5f6.o(.text.app_read_ext_mem) refers to lto-llvm-8ef5f6.o(.bss.retention_mem_area0) for [Anonymous Symbol]
    lto-llvm-8ef5f6.o(.ARM.exidx.text.app_read_ext_mem) refers to lto-llvm-8ef5f6.o(.text.app_read_ext_mem) for [Anonymous Symbol]
    lto-llvm-8ef5f6.o(.text.app_suotar_process_handler) refers to lto-llvm-8ef5f6.o(.text.app_std_process_event) for app_std_process_event
    lto-llvm-8ef5f6.o(.text.app_suotar_process_handler) refers to lto-llvm-8ef5f6.o(.rodata) for [Anonymous Symbol]
    lto-llvm-8ef5f6.o(.ARM.exidx.text.app_suotar_process_handler) refers to lto-llvm-8ef5f6.o(.text.app_suotar_process_handler) for [Anonymous Symbol]
    lto-llvm-8ef5f6.o(.text.suotar_patch_mem_dev_ind_handler) refers to lto-llvm-8ef5f6.o(.text.app_suotar_stop) for app_suotar_stop
    lto-llvm-8ef5f6.o(.text.suotar_patch_mem_dev_ind_handler) refers to lto-llvm-8ef5f6.o(.text.on_suotar_status_change) for on_suotar_status_change
    lto-llvm-8ef5f6.o(.text.suotar_patch_mem_dev_ind_handler) refers to lto-llvm-8ef5f6.o(.text.suotar_send_status_update_req) for suotar_send_status_update_req
    lto-llvm-8ef5f6.o(.text.suotar_patch_mem_dev_ind_handler) refers to lto-llvm-8ef5f6.o(.text.app_easy_gap_disconnect) for app_easy_gap_disconnect
    lto-llvm-8ef5f6.o(.text.suotar_patch_mem_dev_ind_handler) refers to lto-llvm-8ef5f6.o(.text.app_suotar_spi_config) for app_suotar_spi_config
    lto-llvm-8ef5f6.o(.text.suotar_patch_mem_dev_ind_handler) refers to lto-llvm-8ef5f6.o(.text.app_spi_flash_init) for app_spi_flash_init
    lto-llvm-8ef5f6.o(.text.suotar_patch_mem_dev_ind_handler) refers to lto-llvm-8ef5f6.o(.text.app_flash_write_data) for app_flash_write_data
    lto-llvm-8ef5f6.o(.text.suotar_patch_mem_dev_ind_handler) refers to lto-llvm-8ef5f6.o(.text.suotar_send_mem_info_update_req) for suotar_send_mem_info_update_req
    lto-llvm-8ef5f6.o(.text.suotar_patch_mem_dev_ind_handler) refers to lto-llvm-8ef5f6.o(.bss.retention_mem_area0) for [Anonymous Symbol]
    lto-llvm-8ef5f6.o(.ARM.exidx.text.suotar_patch_mem_dev_ind_handler) refers to lto-llvm-8ef5f6.o(.text.suotar_patch_mem_dev_ind_handler) for [Anonymous Symbol]
    lto-llvm-8ef5f6.o(.text.suotar_gpio_map_ind_handler) refers to lto-llvm-8ef5f6.o(.text.suotar_send_mem_info_update_req) for suotar_send_mem_info_update_req
    lto-llvm-8ef5f6.o(.text.suotar_gpio_map_ind_handler) refers to lto-llvm-8ef5f6.o(.text.suotar_send_status_update_req) for suotar_send_status_update_req
    lto-llvm-8ef5f6.o(.text.suotar_gpio_map_ind_handler) refers to lto-llvm-8ef5f6.o(.bss.retention_mem_area0) for [Anonymous Symbol]
    lto-llvm-8ef5f6.o(.ARM.exidx.text.suotar_gpio_map_ind_handler) refers to lto-llvm-8ef5f6.o(.text.suotar_gpio_map_ind_handler) for [Anonymous Symbol]
    lto-llvm-8ef5f6.o(.text.suotar_patch_len_ind_handler) refers to lto-llvm-8ef5f6.o(.text.suotar_send_status_update_req) for suotar_send_status_update_req
    lto-llvm-8ef5f6.o(.text.suotar_patch_len_ind_handler) refers to lto-llvm-8ef5f6.o(.bss.retention_mem_area0) for [Anonymous Symbol]
    lto-llvm-8ef5f6.o(.ARM.exidx.text.suotar_patch_len_ind_handler) refers to lto-llvm-8ef5f6.o(.text.suotar_patch_len_ind_handler) for [Anonymous Symbol]
    lto-llvm-8ef5f6.o(.text.suotar_patch_data_ind_handler) refers to lto-llvm-8ef5f6.o(.text.suotar_send_status_update_req) for suotar_send_status_update_req
    lto-llvm-8ef5f6.o(.text.suotar_patch_data_ind_handler) refers to lto-llvm-8ef5f6.o(.text.app_suotar_spi_config) for app_suotar_spi_config
    lto-llvm-8ef5f6.o(.text.suotar_patch_data_ind_handler) refers to lto-llvm-8ef5f6.o(.text.app_spi_flash_init) for app_spi_flash_init
    lto-llvm-8ef5f6.o(.text.suotar_patch_data_ind_handler) refers to lto-llvm-8ef5f6.o(.text.app_read_ext_mem) for app_read_ext_mem
    lto-llvm-8ef5f6.o(.text.suotar_patch_data_ind_handler) refers to lto-llvm-8ef5f6.o(.text.app_flash_write_data) for app_flash_write_data
    lto-llvm-8ef5f6.o(.text.suotar_patch_data_ind_handler) refers to lto-llvm-8ef5f6.o(.text.suotar_send_mem_info_update_req) for suotar_send_mem_info_update_req
    lto-llvm-8ef5f6.o(.text.suotar_patch_data_ind_handler) refers to lto-llvm-8ef5f6.o(.text.app_erase_flash_sectors) for app_erase_flash_sectors
    lto-llvm-8ef5f6.o(.text.suotar_patch_data_ind_handler) refers to lto-llvm-8ef5f6.o(.bss.retention_mem_area0) for [Anonymous Symbol]
    lto-llvm-8ef5f6.o(.ARM.exidx.text.suotar_patch_data_ind_handler) refers to lto-llvm-8ef5f6.o(.text.suotar_patch_data_ind_handler) for [Anonymous Symbol]
    lto-llvm-8ef5f6.o(.text.app_entry_point_handler) refers to lto-llvm-8ef5f6.o(.text.user_catch_rest_hndl) for user_catch_rest_hndl
    lto-llvm-8ef5f6.o(.text.app_entry_point_handler) refers to lto-llvm-8ef5f6.o(.rodata) for [Anonymous Symbol]
    lto-llvm-8ef5f6.o(.ARM.exidx.text.app_entry_point_handler) refers to lto-llvm-8ef5f6.o(.text.app_entry_point_handler) for [Anonymous Symbol]
    lto-llvm-8ef5f6.o(.ARM.exidx.text.app_std_process_event) refers to lto-llvm-8ef5f6.o(.text.app_std_process_event) for [Anonymous Symbol]
    lto-llvm-8ef5f6.o(.text.app_msg_utils_api_process_handler) refers to lto-llvm-8ef5f6.o(.bss.retention_mem_area0) for [Anonymous Symbol]
    lto-llvm-8ef5f6.o(.ARM.exidx.text.app_msg_utils_api_process_handler) refers to lto-llvm-8ef5f6.o(.text.app_msg_utils_api_process_handler) for [Anonymous Symbol]
    lto-llvm-8ef5f6.o(.text.app_easy_security_tk_exch) refers to lto-llvm-8ef5f6.o(.bss.retention_mem_area0) for [Anonymous Symbol]
    lto-llvm-8ef5f6.o(.ARM.exidx.text.app_easy_security_tk_exch) refers to lto-llvm-8ef5f6.o(.text.app_easy_security_tk_exch) for [Anonymous Symbol]
    lto-llvm-8ef5f6.o(.text.ltk_exch_create_msg) refers to lto-llvm-8ef5f6.o(.bss.retention_mem_area0) for [Anonymous Symbol]
    lto-llvm-8ef5f6.o(.ARM.exidx.text.ltk_exch_create_msg) refers to lto-llvm-8ef5f6.o(.text.ltk_exch_create_msg) for [Anonymous Symbol]
    lto-llvm-8ef5f6.o(.text.app_timer_api_process_handler) refers to lto-llvm-8ef5f6.o(.text.create_timer) for create_timer
    lto-llvm-8ef5f6.o(.text.app_timer_api_process_handler) refers to lto-llvm-8ef5f6.o(.bss.retention_mem_area0) for [Anonymous Symbol]
    lto-llvm-8ef5f6.o(.text.app_timer_api_process_handler) refers to lto-llvm-8ef5f6.o(.text.timer_modified_handler) for timer_modified_handler
    lto-llvm-8ef5f6.o(.text.app_timer_api_process_handler) refers to lto-llvm-8ef5f6.o(.text.timer_canceled_handler) for timer_canceled_handler
    lto-llvm-8ef5f6.o(.ARM.exidx.text.app_timer_api_process_handler) refers to lto-llvm-8ef5f6.o(.text.app_timer_api_process_handler) for [Anonymous Symbol]
    lto-llvm-8ef5f6.o(.ARM.exidx.text.timer_canceled_handler) refers to lto-llvm-8ef5f6.o(.text.timer_canceled_handler) for [Anonymous Symbol]
    lto-llvm-8ef5f6.o(.ARM.exidx.text.timer_modified_handler) refers to lto-llvm-8ef5f6.o(.text.timer_modified_handler) for [Anonymous Symbol]
    lto-llvm-8ef5f6.o(.ARM.exidx.text.create_timer) refers to lto-llvm-8ef5f6.o(.text.create_timer) for [Anonymous Symbol]
    lto-llvm-8ef5f6.o(.text.app_easy_timer) refers to lto-llvm-8ef5f6.o(.text.create_timer) for create_timer
    lto-llvm-8ef5f6.o(.text.app_easy_timer) refers to lto-llvm-8ef5f6.o(.bss.retention_mem_area0) for [Anonymous Symbol]
    lto-llvm-8ef5f6.o(.ARM.exidx.text.app_easy_timer) refers to lto-llvm-8ef5f6.o(.text.app_easy_timer) for [Anonymous Symbol]
    lto-llvm-8ef5f6.o(.text.app_easy_timer_cancel) refers to lto-llvm-8ef5f6.o(.bss.retention_mem_area0) for [Anonymous Symbol]
    lto-llvm-8ef5f6.o(.text.app_easy_timer_cancel) refers to lto-llvm-8ef5f6.o(.text.timer_canceled_handler) for timer_canceled_handler
    lto-llvm-8ef5f6.o(.ARM.exidx.text.app_easy_timer_cancel) refers to lto-llvm-8ef5f6.o(.text.app_easy_timer_cancel) for [Anonymous Symbol]
    lto-llvm-8ef5f6.o(.text.app_custs1_create_db) refers to lto-llvm-8ef5f6.o(.text.get_user_prf_srv_perm) for get_user_prf_srv_perm
    lto-llvm-8ef5f6.o(.ARM.exidx.text.app_custs1_create_db) refers to lto-llvm-8ef5f6.o(.text.app_custs1_create_db) for [Anonymous Symbol]
    lto-llvm-8ef5f6.o(.ARM.exidx.text.app_custs1_process_handler) refers to lto-llvm-8ef5f6.o(.text.app_custs1_process_handler) for [Anonymous Symbol]
    lto-llvm-8ef5f6.o(.ARM.exidx.text.app_fill_random_byte_array) refers to lto-llvm-8ef5f6.o(.text.app_fill_random_byte_array) for [Anonymous Symbol]
    lto-llvm-8ef5f6.o(.text.periph_init) refers to patch.o(.text) for patch_func
    lto-llvm-8ef5f6.o(.text.periph_init) refers to lto-llvm-8ef5f6.o(.text.spi_cs_high) for spi_cs_high
    lto-llvm-8ef5f6.o(.text.periph_init) refers to lto-llvm-8ef5f6.o(.text.EPD_GPIO_init) for EPD_GPIO_init
    lto-llvm-8ef5f6.o(.text.periph_init) refers to lto-llvm-8ef5f6.o(.bss.retention_mem_area0) for [Anonymous Symbol]
    lto-llvm-8ef5f6.o(.text.periph_init) refers to lto-llvm-8ef5f6.o(.bss) for [Anonymous Symbol]
    lto-llvm-8ef5f6.o(.ARM.exidx.text.periph_init) refers to lto-llvm-8ef5f6.o(.text.periph_init) for [Anonymous Symbol]
    lto-llvm-8ef5f6.o(.text.on_suotar_status_change) refers to lto-llvm-8ef5f6.o(.text.spi_flash_release_from_power_down) for spi_flash_release_from_power_down
    lto-llvm-8ef5f6.o(.text.on_suotar_status_change) refers to lto-llvm-8ef5f6.o(.text.spi_flash_auto_detect) for spi_flash_auto_detect
    lto-llvm-8ef5f6.o(.text.on_suotar_status_change) refers to lto-llvm-8ef5f6.o(.text.spi_flash_is_busy) for spi_flash_is_busy
    lto-llvm-8ef5f6.o(.text.on_suotar_status_change) refers to lto-llvm-8ef5f6.o(.text.spi_set_bitmode) for spi_set_bitmode
    lto-llvm-8ef5f6.o(.text.on_suotar_status_change) refers to lto-llvm-8ef5f6.o(.text.spi_transaction) for spi_transaction
    lto-llvm-8ef5f6.o(.ARM.exidx.text.on_suotar_status_change) refers to lto-llvm-8ef5f6.o(.text.on_suotar_status_change) for [Anonymous Symbol]
    lto-llvm-8ef5f6.o(.text.user_app_adv_start) refers to lto-llvm-8ef5f6.o(.text.app_easy_timer) for app_easy_timer
    lto-llvm-8ef5f6.o(.text.user_app_adv_start) refers to lto-llvm-8ef5f6.o(.text.nvds_get_func) for nvds_get_func
    lto-llvm-8ef5f6.o(.text.user_app_adv_start) refers to printf8.o(i.__0sprintf$8) for __2sprintf
    lto-llvm-8ef5f6.o(.text.user_app_adv_start) refers to lto-llvm-8ef5f6.o(.text.adv_data_update_timer_cb) for adv_data_update_timer_cb
    lto-llvm-8ef5f6.o(.text.user_app_adv_start) refers to lto-llvm-8ef5f6.o(.bss.retention_mem_area0) for [Anonymous Symbol]
    lto-llvm-8ef5f6.o(.text.user_app_adv_start) refers to lto-llvm-8ef5f6.o(.rodata.str1.1) for [Anonymous Symbol]
    lto-llvm-8ef5f6.o(.text.user_app_adv_start) refers to lto-llvm-8ef5f6.o(.rodata.str1.4) for [Anonymous Symbol]
    lto-llvm-8ef5f6.o(.ARM.exidx.text.user_app_adv_start) refers to lto-llvm-8ef5f6.o(.text.user_app_adv_start) for [Anonymous Symbol]
    lto-llvm-8ef5f6.o(.text.adv_data_update_timer_cb) refers to lto-llvm-8ef5f6.o(.text.mnf_data_update) for mnf_data_update
    lto-llvm-8ef5f6.o(.text.adv_data_update_timer_cb) refers to lto-llvm-8ef5f6.o(.text.app_easy_timer) for app_easy_timer
    lto-llvm-8ef5f6.o(.text.adv_data_update_timer_cb) refers to lto-llvm-8ef5f6.o(.bss.retention_mem_area0) for [Anonymous Symbol]
    lto-llvm-8ef5f6.o(.ARM.exidx.text.adv_data_update_timer_cb) refers to lto-llvm-8ef5f6.o(.text.adv_data_update_timer_cb) for [Anonymous Symbol]
    lto-llvm-8ef5f6.o(.text.mnf_data_update) refers to lto-llvm-8ef5f6.o(.bss.retention_mem_area0) for [Anonymous Symbol]
    lto-llvm-8ef5f6.o(.ARM.exidx.text.mnf_data_update) refers to lto-llvm-8ef5f6.o(.text.mnf_data_update) for [Anonymous Symbol]
    lto-llvm-8ef5f6.o(.text.param_update_request_timer_cb) refers to lto-llvm-8ef5f6.o(.bss.retention_mem_area0) for [Anonymous Symbol]
    lto-llvm-8ef5f6.o(.ARM.exidx.text.param_update_request_timer_cb) refers to lto-llvm-8ef5f6.o(.text.param_update_request_timer_cb) for [Anonymous Symbol]
    lto-llvm-8ef5f6.o(.text.user_catch_rest_hndl) refers to lto-llvm-8ef5f6.o(.text.bls_att_pushNotifyData) for bls_att_pushNotifyData
    lto-llvm-8ef5f6.o(.text.user_catch_rest_hndl) refers to lto-llvm-8ef5f6.o(.text.arch_printf) for arch_printf
    lto-llvm-8ef5f6.o(.text.user_catch_rest_hndl) refers to lto-llvm-8ef5f6.o(.text.transformTime) for transformTime
    lto-llvm-8ef5f6.o(.text.user_catch_rest_hndl) refers to lto-llvm-8ef5f6.o(.text.LUNAR_SolarToLunar) for LUNAR_SolarToLunar
    lto-llvm-8ef5f6.o(.text.user_catch_rest_hndl) refers to lto-llvm-8ef5f6.o(.text.display) for display
    lto-llvm-8ef5f6.o(.text.user_catch_rest_hndl) refers to lto-llvm-8ef5f6.o(.text.app_easy_timer_cancel) for app_easy_timer_cancel
    lto-llvm-8ef5f6.o(.text.user_catch_rest_hndl) refers to lto-llvm-8ef5f6.o(.text.app_easy_timer) for app_easy_timer
    lto-llvm-8ef5f6.o(.text.user_catch_rest_hndl) refers to lto-llvm-8ef5f6.o(.text.do_display_update_with_analog_clock) for do_display_update_with_analog_clock
    lto-llvm-8ef5f6.o(.text.user_catch_rest_hndl) refers to lto-llvm-8ef5f6.o(.text.spi_flash_peripheral_init) for spi_flash_peripheral_init
    lto-llvm-8ef5f6.o(.text.user_catch_rest_hndl) refers to lto-llvm-8ef5f6.o(.text.spi_flash_read_data) for spi_flash_read_data
    lto-llvm-8ef5f6.o(.text.user_catch_rest_hndl) refers to lto-llvm-8ef5f6.o(.text.spi_flash_ultra_deep_power_down) for spi_flash_ultra_deep_power_down
    lto-llvm-8ef5f6.o(.text.user_catch_rest_hndl) refers to lto-llvm-8ef5f6.o(.bss.retention_mem_area0) for [Anonymous Symbol]
    lto-llvm-8ef5f6.o(.text.user_catch_rest_hndl) refers to lto-llvm-8ef5f6.o(.bss) for [Anonymous Symbol]
    lto-llvm-8ef5f6.o(.text.user_catch_rest_hndl) refers to lto-llvm-8ef5f6.o(.rodata.str1.1) for [Anonymous Symbol]
    lto-llvm-8ef5f6.o(.text.user_catch_rest_hndl) refers to printf8.o(i.__0sprintf$8) for __2sprintf
    lto-llvm-8ef5f6.o(.text.user_catch_rest_hndl) refers to lto-llvm-8ef5f6.o(.rodata) for [Anonymous Symbol]
    lto-llvm-8ef5f6.o(.text.user_catch_rest_hndl) refers to lto-llvm-8ef5f6.o(.text.do_min_work_with_analog_clock) for do_min_work_with_analog_clock
    lto-llvm-8ef5f6.o(.ARM.exidx.text.user_catch_rest_hndl) refers to lto-llvm-8ef5f6.o(.text.user_catch_rest_hndl) for [Anonymous Symbol]
    lto-llvm-8ef5f6.o(.ARM.exidx.text.EPD_GPIO_init) refers to lto-llvm-8ef5f6.o(.text.EPD_GPIO_init) for [Anonymous Symbol]
    lto-llvm-8ef5f6.o(.text.DEV_SPI_WriteByte) refers to lto-llvm-8ef5f6.o(.text.spi_access) for spi_access
    lto-llvm-8ef5f6.o(.ARM.exidx.text.DEV_SPI_WriteByte) refers to lto-llvm-8ef5f6.o(.text.DEV_SPI_WriteByte) for [Anonymous Symbol]
    lto-llvm-8ef5f6.o(.text.EPD_2IN13_V2_SendCommand) refers to lto-llvm-8ef5f6.o(.text.DEV_SPI_WriteByte) for DEV_SPI_WriteByte
    lto-llvm-8ef5f6.o(.ARM.exidx.text.EPD_2IN13_V2_SendCommand) refers to lto-llvm-8ef5f6.o(.text.EPD_2IN13_V2_SendCommand) for [Anonymous Symbol]
    lto-llvm-8ef5f6.o(.text.EPD_2IN13_V2_SendData) refers to lto-llvm-8ef5f6.o(.text.DEV_SPI_WriteByte) for DEV_SPI_WriteByte
    lto-llvm-8ef5f6.o(.ARM.exidx.text.EPD_2IN13_V2_SendData) refers to lto-llvm-8ef5f6.o(.text.EPD_2IN13_V2_SendData) for [Anonymous Symbol]
    lto-llvm-8ef5f6.o(.text.EPD_2IN13_V2_ReadBusy) refers to lto-llvm-8ef5f6.o(.text.systick_wait) for systick_wait
    lto-llvm-8ef5f6.o(.ARM.exidx.text.EPD_2IN13_V2_ReadBusy) refers to lto-llvm-8ef5f6.o(.text.EPD_2IN13_V2_ReadBusy) for [Anonymous Symbol]
    lto-llvm-8ef5f6.o(.text.do_display_update_with_analog_clock) refers to lto-llvm-8ef5f6.o(.text.EPD_DrawUTF8) for EPD_DrawUTF8
    lto-llvm-8ef5f6.o(.text.do_display_update_with_analog_clock) refers to lto-llvm-8ef5f6.o(.text.Paint_SetPixel) for Paint_SetPixel
    lto-llvm-8ef5f6.o(.text.do_display_update_with_analog_clock) refers to lto-llvm-8ef5f6.o(.bss) for [Anonymous Symbol]
    lto-llvm-8ef5f6.o(.text.do_display_update_with_analog_clock) refers to lto-llvm-8ef5f6.o(.rodata) for [Anonymous Symbol]
    lto-llvm-8ef5f6.o(.ARM.exidx.text.do_display_update_with_analog_clock) refers to lto-llvm-8ef5f6.o(.text.do_display_update_with_analog_clock) for [Anonymous Symbol]
    lto-llvm-8ef5f6.o(.text.spi_flash_peripheral_init) refers to lto-llvm-8ef5f6.o(.text.spi_flash_release_from_power_down) for spi_flash_release_from_power_down
    lto-llvm-8ef5f6.o(.text.spi_flash_peripheral_init) refers to lto-llvm-8ef5f6.o(.text.spi_flash_auto_detect) for spi_flash_auto_detect
    lto-llvm-8ef5f6.o(.text.spi_flash_peripheral_init) refers to lto-llvm-8ef5f6.o(.bss.retention_mem_area0) for [Anonymous Symbol]
    lto-llvm-8ef5f6.o(.ARM.exidx.text.spi_flash_peripheral_init) refers to lto-llvm-8ef5f6.o(.text.spi_flash_peripheral_init) for [Anonymous Symbol]
    lto-llvm-8ef5f6.o(.text.do_min_work_with_analog_clock) refers to lto-llvm-8ef5f6.o(.text.app_easy_timer) for app_easy_timer
    lto-llvm-8ef5f6.o(.text.do_min_work_with_analog_clock) refers to lto-llvm-8ef5f6.o(.text.transformTime) for transformTime
    lto-llvm-8ef5f6.o(.text.do_min_work_with_analog_clock) refers to lto-llvm-8ef5f6.o(.text.LUNAR_SolarToLunar) for LUNAR_SolarToLunar
    lto-llvm-8ef5f6.o(.text.do_min_work_with_analog_clock) refers to lto-llvm-8ef5f6.o(.text.display) for display
    lto-llvm-8ef5f6.o(.text.do_min_work_with_analog_clock) refers to lto-llvm-8ef5f6.o(.bss.retention_mem_area0) for [Anonymous Symbol]
    lto-llvm-8ef5f6.o(.text.do_min_work_with_analog_clock) refers to lto-llvm-8ef5f6.o(.bss) for [Anonymous Symbol]
    lto-llvm-8ef5f6.o(.text.do_min_work_with_analog_clock) refers to lto-llvm-8ef5f6.o(.rodata.str1.1) for [Anonymous Symbol]
    lto-llvm-8ef5f6.o(.text.do_min_work_with_analog_clock) refers to printf8.o(i.__0sprintf$8) for __2sprintf
    lto-llvm-8ef5f6.o(.text.do_min_work_with_analog_clock) refers to lto-llvm-8ef5f6.o(.rodata) for [Anonymous Symbol]
    lto-llvm-8ef5f6.o(.ARM.exidx.text.do_min_work_with_analog_clock) refers to lto-llvm-8ef5f6.o(.text.do_min_work_with_analog_clock) for [Anonymous Symbol]
    lto-llvm-8ef5f6.o(.text.display) refers to lto-llvm-8ef5f6.o(.text.EPD_GPIO_init) for EPD_GPIO_init
    lto-llvm-8ef5f6.o(.text.display) refers to lto-llvm-8ef5f6.o(.text.systick_wait) for systick_wait
    lto-llvm-8ef5f6.o(.text.display) refers to lto-llvm-8ef5f6.o(.text.EPD_2IN13_V2_SendCommand) for EPD_2IN13_V2_SendCommand
    lto-llvm-8ef5f6.o(.text.display) refers to lto-llvm-8ef5f6.o(.text.do_display_update_with_analog_clock) for do_display_update_with_analog_clock
    lto-llvm-8ef5f6.o(.text.display) refers to lto-llvm-8ef5f6.o(.text.EPD_2IN13_V2_SendData) for EPD_2IN13_V2_SendData
    lto-llvm-8ef5f6.o(.text.display) refers to lto-llvm-8ef5f6.o(.text.EPD_2IN13_V2_ReadBusy) for EPD_2IN13_V2_ReadBusy
    lto-llvm-8ef5f6.o(.text.display) refers to lto-llvm-8ef5f6.o(.text.bls_att_pushNotifyData) for bls_att_pushNotifyData
    lto-llvm-8ef5f6.o(.text.display) refers to lto-llvm-8ef5f6.o(.text.app_easy_timer) for app_easy_timer
    lto-llvm-8ef5f6.o(.text.display) refers to lto-llvm-8ef5f6.o(.bss.retention_mem_area0) for [Anonymous Symbol]
    lto-llvm-8ef5f6.o(.text.display) refers to lto-llvm-8ef5f6.o(.bss) for [Anonymous Symbol]
    lto-llvm-8ef5f6.o(.ARM.exidx.text.display) refers to lto-llvm-8ef5f6.o(.text.display) for [Anonymous Symbol]
    lto-llvm-8ef5f6.o(.ARM.exidx.text.bls_att_pushNotifyData) refers to lto-llvm-8ef5f6.o(.text.bls_att_pushNotifyData) for [Anonymous Symbol]
    lto-llvm-8ef5f6.o(.text.transformTime) refers to lto-llvm-8ef5f6.o(.bss.retention_mem_area0) for [Anonymous Symbol]
    lto-llvm-8ef5f6.o(.text.transformTime) refers to lto-llvm-8ef5f6.o(.rodata) for [Anonymous Symbol]
    lto-llvm-8ef5f6.o(.ARM.exidx.text.transformTime) refers to lto-llvm-8ef5f6.o(.text.transformTime) for [Anonymous Symbol]
    lto-llvm-8ef5f6.o(.text.Paint_SetPixel) refers to lto-llvm-8ef5f6.o(.bss) for [Anonymous Symbol]
    lto-llvm-8ef5f6.o(.text.Paint_SetPixel) refers to lto-llvm-8ef5f6.o(.bss.retention_mem_area0) for [Anonymous Symbol]
    lto-llvm-8ef5f6.o(.ARM.exidx.text.Paint_SetPixel) refers to lto-llvm-8ef5f6.o(.text.Paint_SetPixel) for [Anonymous Symbol]
    lto-llvm-8ef5f6.o(.text.EPD_DrawUTF8) refers to lto-llvm-8ef5f6.o(.text.Paint_SetPixel) for Paint_SetPixel
    lto-llvm-8ef5f6.o(.text.EPD_DrawUTF8) refers to lto-llvm-8ef5f6.o(.rodata) for [Anonymous Symbol]
    lto-llvm-8ef5f6.o(.ARM.exidx.text.EPD_DrawUTF8) refers to lto-llvm-8ef5f6.o(.text.EPD_DrawUTF8) for [Anonymous Symbol]
    lto-llvm-8ef5f6.o(.text.LUNAR_SolarToLunar) refers to lto-llvm-8ef5f6.o(.text.SolarToInt) for SolarToInt
    lto-llvm-8ef5f6.o(.text.LUNAR_SolarToLunar) refers to lto-llvm-8ef5f6.o(.rodata) for [Anonymous Symbol]
    lto-llvm-8ef5f6.o(.ARM.exidx.text.LUNAR_SolarToLunar) refers to lto-llvm-8ef5f6.o(.text.LUNAR_SolarToLunar) for [Anonymous Symbol]
    lto-llvm-8ef5f6.o(.ARM.exidx.text.SolarToInt) refers to lto-llvm-8ef5f6.o(.text.SolarToInt) for [Anonymous Symbol]
    lto-llvm-8ef5f6.o(.rodata) refers to lto-llvm-8ef5f6.o(.text.rf_init_func) for rf_init_func
    lto-llvm-8ef5f6.o(.rodata) refers to lto-llvm-8ef5f6.o(.text.rf_reinit_func) for rf_reinit_func
    lto-llvm-8ef5f6.o(.rodata) refers to lto-llvm-8ef5f6.o(.text.nvds_get_func) for nvds_get_func
    lto-llvm-8ef5f6.o(.rodata) refers to lto-llvm-8ef5f6.o(.text.nvds_put_func) for nvds_put_func
    lto-llvm-8ef5f6.o(.rodata) refers to lto-llvm-8ef5f6.o(.text.nvds_del_func) for nvds_del_func
    lto-llvm-8ef5f6.o(.rodata) refers to lto-llvm-8ef5f6.o(.text.nvds_init_func) for nvds_init_func
    lto-llvm-8ef5f6.o(.rodata) refers to lto-llvm-8ef5f6.o(.text.platform_reset_func) for platform_reset_func
    lto-llvm-8ef5f6.o(.rodata) refers to lto-llvm-8ef5f6.o(.text.lld_sleep_compensate_func) for lld_sleep_compensate_func
    lto-llvm-8ef5f6.o(.rodata) refers to lto-llvm-8ef5f6.o(.text.lld_sleep_init_func) for lld_sleep_init_func
    lto-llvm-8ef5f6.o(.rodata) refers to lto-llvm-8ef5f6.o(.text.lld_sleep_us_2_lpcycles_sel_func) for lld_sleep_us_2_lpcycles_sel_func
    lto-llvm-8ef5f6.o(.rodata) refers to lto-llvm-8ef5f6.o(.text.lld_sleep_lpcycles_2_us_sel_func) for lld_sleep_lpcycles_2_us_sel_func
    lto-llvm-8ef5f6.o(.rodata) refers to lto-llvm-8ef5f6.o(.text.prf_init_func) for prf_init_func
    lto-llvm-8ef5f6.o(.rodata) refers to lto-llvm-8ef5f6.o(.text.prf_add_profile_func) for prf_add_profile_func
    lto-llvm-8ef5f6.o(.rodata) refers to lto-llvm-8ef5f6.o(.text.prf_create_func) for prf_create_func
    lto-llvm-8ef5f6.o(.rodata) refers to lto-llvm-8ef5f6.o(.text.prf_cleanup_func) for prf_cleanup_func
    lto-llvm-8ef5f6.o(.rodata) refers to lto-llvm-8ef5f6.o(.text.prf_get_id_from_task_func) for prf_get_id_from_task_func
    lto-llvm-8ef5f6.o(.rodata) refers to lto-llvm-8ef5f6.o(.text.prf_get_task_from_id_func) for prf_get_task_from_id_func
    lto-llvm-8ef5f6.o(.rodata) refers to lto-llvm-8ef5f6.o(.text.dbg_init_func_empty) for dbg_init_func_empty
    lto-llvm-8ef5f6.o(.rodata) refers to lto-llvm-8ef5f6.o(.text.dbg_platform_reset_complete_func_empty) for dbg_platform_reset_complete_func_empty
    lto-llvm-8ef5f6.o(.rodata) refers to patch.o(.text) for JT_l2cc_pdu_unpack_func
    lto-llvm-8ef5f6.o(.rodata) refers to lto-llvm-8ef5f6.o(.text.crypto_init_func) for crypto_init_func
    lto-llvm-8ef5f6.o(.rodata) refers to lto-llvm-8ef5f6.o(.text.dia_rand_func) for dia_rand_func
    lto-llvm-8ef5f6.o(.rodata) refers to lto-llvm-8ef5f6.o(.text.dia_srand_func) for dia_srand_func
    lto-llvm-8ef5f6.o(.rodata) refers to lto-llvm-8ef5f6.o(.text.ba431_get_rand_func) for ba431_get_rand_func
    lto-llvm-8ef5f6.o(.rodata) refers to lto-llvm-8ef5f6.o(.bss.heap_mem_area_not_ret) for [Anonymous Symbol]
    lto-llvm-8ef5f6.o(.rodata) refers to lto-llvm-8ef5f6.o(.bss.heap_env_area) for [Anonymous Symbol]
    lto-llvm-8ef5f6.o(.rodata) refers to lto-llvm-8ef5f6.o(.bss.heap_db_area) for [Anonymous Symbol]
    lto-llvm-8ef5f6.o(.rodata) refers to lto-llvm-8ef5f6.o(.bss.heap_msg_area) for [Anonymous Symbol]
    lto-llvm-8ef5f6.o(.rodata) refers to lto-llvm-8ef5f6.o(.text.diss_init) for diss_init
    lto-llvm-8ef5f6.o(.rodata) refers to lto-llvm-8ef5f6.o(.text.diss_destroy) for diss_destroy
    lto-llvm-8ef5f6.o(.rodata) refers to lto-llvm-8ef5f6.o(.text.diss_create) for diss_create
    lto-llvm-8ef5f6.o(.rodata) refers to lto-llvm-8ef5f6.o(.text.diss_cleanup) for diss_cleanup
    lto-llvm-8ef5f6.o(.rodata) refers to lto-llvm-8ef5f6.o(.text.diss_set_value_req_handler) for diss_set_value_req_handler
    lto-llvm-8ef5f6.o(.rodata) refers to lto-llvm-8ef5f6.o(.text.gattc_read_req_ind_handler) for gattc_read_req_ind_handler
    lto-llvm-8ef5f6.o(.rodata) refers to lto-llvm-8ef5f6.o(.text.diss_value_cfm_handler) for diss_value_cfm_handler
    lto-llvm-8ef5f6.o(.rodata) refers to lto-llvm-8ef5f6.o(.text.custs1_init) for custs1_init
    lto-llvm-8ef5f6.o(.rodata) refers to lto-llvm-8ef5f6.o(.text.custs1_destroy) for custs1_destroy
    lto-llvm-8ef5f6.o(.rodata) refers to lto-llvm-8ef5f6.o(.text.custs1_create) for custs1_create
    lto-llvm-8ef5f6.o(.rodata) refers to lto-llvm-8ef5f6.o(.text.custs1_cleanup) for custs1_cleanup
    lto-llvm-8ef5f6.o(.rodata) refers to lto-llvm-8ef5f6.o(.text.gattc_read_req_ind_handler.74) for gattc_read_req_ind_handler.74
    lto-llvm-8ef5f6.o(.rodata) refers to lto-llvm-8ef5f6.o(.text.gattc_write_req_ind_handler) for gattc_write_req_ind_handler
    lto-llvm-8ef5f6.o(.rodata) refers to lto-llvm-8ef5f6.o(.text.gattc_att_info_req_ind_handler) for gattc_att_info_req_ind_handler
    lto-llvm-8ef5f6.o(.rodata) refers to lto-llvm-8ef5f6.o(.text.gattc_cmp_evt_handler) for gattc_cmp_evt_handler
    lto-llvm-8ef5f6.o(.rodata) refers to lto-llvm-8ef5f6.o(.text.custs1_val_ntf_req_handler) for custs1_val_ntf_req_handler
    lto-llvm-8ef5f6.o(.rodata) refers to lto-llvm-8ef5f6.o(.text.custs1_val_set_req_handler) for custs1_val_set_req_handler
    lto-llvm-8ef5f6.o(.rodata) refers to lto-llvm-8ef5f6.o(.text.custs1_val_ind_req_handler) for custs1_val_ind_req_handler
    lto-llvm-8ef5f6.o(.rodata) refers to lto-llvm-8ef5f6.o(.text.custs1_att_info_rsp_handler) for custs1_att_info_rsp_handler
    lto-llvm-8ef5f6.o(.rodata) refers to lto-llvm-8ef5f6.o(.text.custs1_value_req_rsp_handler) for custs1_value_req_rsp_handler
    lto-llvm-8ef5f6.o(.rodata) refers to lto-llvm-8ef5f6.o(.text.suotar_init) for suotar_init
    lto-llvm-8ef5f6.o(.rodata) refers to lto-llvm-8ef5f6.o(.text.suotar_destroy) for suotar_destroy
    lto-llvm-8ef5f6.o(.rodata) refers to lto-llvm-8ef5f6.o(.text.suotar_create) for suotar_create
    lto-llvm-8ef5f6.o(.rodata) refers to lto-llvm-8ef5f6.o(.text.suotar_cleanup) for suotar_cleanup
    lto-llvm-8ef5f6.o(.rodata) refers to lto-llvm-8ef5f6.o(.text.gattc_read_req_ind_handler.101) for gattc_read_req_ind_handler.101
    lto-llvm-8ef5f6.o(.rodata) refers to lto-llvm-8ef5f6.o(.text.gattc_write_req_ind_handler.102) for gattc_write_req_ind_handler.102
    lto-llvm-8ef5f6.o(.rodata) refers to lto-llvm-8ef5f6.o(.text.suotar_mem_info_update_req_handler) for suotar_mem_info_update_req_handler
    lto-llvm-8ef5f6.o(.rodata) refers to lto-llvm-8ef5f6.o(.text.suotar_status_update_req_handler) for suotar_status_update_req_handler
    lto-llvm-8ef5f6.o(.rodata) refers to lto-llvm-8ef5f6.o(.text.bass_init) for bass_init
    lto-llvm-8ef5f6.o(.rodata) refers to lto-llvm-8ef5f6.o(.text.bass_destroy) for bass_destroy
    lto-llvm-8ef5f6.o(.rodata) refers to lto-llvm-8ef5f6.o(.text.bass_create) for bass_create
    lto-llvm-8ef5f6.o(.rodata) refers to lto-llvm-8ef5f6.o(.text.bass_cleanup) for bass_cleanup
    lto-llvm-8ef5f6.o(.rodata) refers to lto-llvm-8ef5f6.o(.text.bass_enable_req_handler) for bass_enable_req_handler
    lto-llvm-8ef5f6.o(.rodata) refers to lto-llvm-8ef5f6.o(.text.bass_batt_level_upd_req_handler) for bass_batt_level_upd_req_handler
    lto-llvm-8ef5f6.o(.rodata) refers to lto-llvm-8ef5f6.o(.text.gattc_att_info_req_ind_handler.107) for gattc_att_info_req_ind_handler.107
    lto-llvm-8ef5f6.o(.rodata) refers to lto-llvm-8ef5f6.o(.text.gattc_write_req_ind_handler.108) for gattc_write_req_ind_handler.108
    lto-llvm-8ef5f6.o(.rodata) refers to lto-llvm-8ef5f6.o(.text.gattc_read_req_ind_handler.109) for gattc_read_req_ind_handler.109
    lto-llvm-8ef5f6.o(.rodata) refers to lto-llvm-8ef5f6.o(.text.gattc_cmp_evt_handler.110) for gattc_cmp_evt_handler.110
    lto-llvm-8ef5f6.o(.rodata) refers to lto-llvm-8ef5f6.o(.text.app_bass_create_db) for app_bass_create_db
    lto-llvm-8ef5f6.o(.rodata) refers to lto-llvm-8ef5f6.o(.text.app_bass_enable) for app_bass_enable
    lto-llvm-8ef5f6.o(.rodata) refers to lto-llvm-8ef5f6.o(.text.app_diss_create_db) for app_diss_create_db
    lto-llvm-8ef5f6.o(.rodata) refers to lto-llvm-8ef5f6.o(.text.app_suotar_create_db) for app_suotar_create_db
    lto-llvm-8ef5f6.o(.rodata) refers to lto-llvm-8ef5f6.o(.bss.retention_mem_area0) for [Anonymous Symbol]
    lto-llvm-8ef5f6.o(.rodata) refers to lto-llvm-8ef5f6.o(.text.app_entry_point_handler) for app_entry_point_handler
    lto-llvm-8ef5f6.o(.rodata) refers to lto-llvm-8ef5f6.o(.text.gapm_device_ready_ind_handler) for gapm_device_ready_ind_handler
    lto-llvm-8ef5f6.o(.rodata) refers to lto-llvm-8ef5f6.o(.text.gapm_cmp_evt_handler) for gapm_cmp_evt_handler
    lto-llvm-8ef5f6.o(.rodata) refers to lto-llvm-8ef5f6.o(.text.gapc_cmp_evt_handler) for gapc_cmp_evt_handler
    lto-llvm-8ef5f6.o(.rodata) refers to lto-llvm-8ef5f6.o(.text.gapc_connection_req_ind_handler) for gapc_connection_req_ind_handler
    lto-llvm-8ef5f6.o(.rodata) refers to lto-llvm-8ef5f6.o(.text.gapc_disconnect_ind_handler) for gapc_disconnect_ind_handler
    lto-llvm-8ef5f6.o(.rodata) refers to lto-llvm-8ef5f6.o(.text.gapc_get_dev_info_req_ind_handler) for gapc_get_dev_info_req_ind_handler
    lto-llvm-8ef5f6.o(.rodata) refers to lto-llvm-8ef5f6.o(.text.gapc_set_dev_info_req_ind_handler) for gapc_set_dev_info_req_ind_handler
    lto-llvm-8ef5f6.o(.rodata) refers to lto-llvm-8ef5f6.o(.text.gapm_profile_added_ind_handler) for gapm_profile_added_ind_handler
    lto-llvm-8ef5f6.o(.rodata) refers to lto-llvm-8ef5f6.o(.text.gapm_adv_report_ind_handler) for gapm_adv_report_ind_handler
    lto-llvm-8ef5f6.o(.rodata) refers to lto-llvm-8ef5f6.o(.text.gapc_param_update_req_ind_handler) for gapc_param_update_req_ind_handler
    lto-llvm-8ef5f6.o(.rodata) refers to lto-llvm-8ef5f6.o(.text.gapc_le_pkt_size_ind_handler) for gapc_le_pkt_size_ind_handler
    lto-llvm-8ef5f6.o(.rodata) refers to lto-llvm-8ef5f6.o(.text.gattc_svc_changed_cfg_ind_handler) for gattc_svc_changed_cfg_ind_handler
    lto-llvm-8ef5f6.o(.rodata) refers to lto-llvm-8ef5f6.o(.text.gapc_peer_features_ind_handler) for gapc_peer_features_ind_handler
    lto-llvm-8ef5f6.o(.rodata) refers to lto-llvm-8ef5f6.o(.text.gapc_security_ind_handler) for gapc_security_ind_handler
    lto-llvm-8ef5f6.o(.rodata) refers to lto-llvm-8ef5f6.o(.text.gapc_bond_req_ind_handler) for gapc_bond_req_ind_handler
    lto-llvm-8ef5f6.o(.rodata) refers to lto-llvm-8ef5f6.o(.text.gapc_bond_ind_handler) for gapc_bond_ind_handler
    lto-llvm-8ef5f6.o(.rodata) refers to lto-llvm-8ef5f6.o(.text.gapc_encrypt_req_ind_handler) for gapc_encrypt_req_ind_handler
    lto-llvm-8ef5f6.o(.rodata) refers to lto-llvm-8ef5f6.o(.text.gapc_encrypt_ind_handler) for gapc_encrypt_ind_handler
    lto-llvm-8ef5f6.o(.rodata) refers to lto-llvm-8ef5f6.o(.text.gapm_addr_solved_ind_handler) for gapm_addr_solved_ind_handler
    lto-llvm-8ef5f6.o(.rodata) refers to lto-llvm-8ef5f6.o(.text.gapm_ral_size_ind_handler) for gapm_ral_size_ind_handler
    lto-llvm-8ef5f6.o(.rodata) refers to lto-llvm-8ef5f6.o(.text.gapm_ral_addr_ind_handler) for gapm_ral_addr_ind_handler
    lto-llvm-8ef5f6.o(.rodata) refers to lto-llvm-8ef5f6.o(.text.bass_enable_rsp_handler) for bass_enable_rsp_handler
    lto-llvm-8ef5f6.o(.rodata) refers to lto-llvm-8ef5f6.o(.text.bass_batt_level_upd_rsp_handler) for bass_batt_level_upd_rsp_handler
    lto-llvm-8ef5f6.o(.rodata) refers to lto-llvm-8ef5f6.o(.text.bass_batt_level_ntf_cfg_ind_handler) for bass_batt_level_ntf_cfg_ind_handler
    lto-llvm-8ef5f6.o(.rodata) refers to lto-llvm-8ef5f6.o(.text.app_bass_timer_handler) for app_bass_timer_handler
    lto-llvm-8ef5f6.o(.rodata) refers to lto-llvm-8ef5f6.o(.text.app_bass_alert_timer_handler) for app_bass_alert_timer_handler
    lto-llvm-8ef5f6.o(.rodata) refers to lto-llvm-8ef5f6.o(.text.app_bass_connect_timer_handler) for app_bass_connect_timer_handler
    lto-llvm-8ef5f6.o(.rodata) refers to lto-llvm-8ef5f6.o(.text.diss_value_req_ind_handler) for diss_value_req_ind_handler
    lto-llvm-8ef5f6.o(.rodata) refers to lto-llvm-8ef5f6.o(.text.suotar_patch_mem_dev_ind_handler) for suotar_patch_mem_dev_ind_handler
    lto-llvm-8ef5f6.o(.rodata) refers to lto-llvm-8ef5f6.o(.text.suotar_gpio_map_ind_handler) for suotar_gpio_map_ind_handler
    lto-llvm-8ef5f6.o(.rodata) refers to lto-llvm-8ef5f6.o(.text.suotar_patch_len_ind_handler) for suotar_patch_len_ind_handler
    lto-llvm-8ef5f6.o(.rodata) refers to lto-llvm-8ef5f6.o(.text.suotar_patch_data_ind_handler) for suotar_patch_data_ind_handler
    lto-llvm-8ef5f6.o(.rodata) refers to lto-llvm-8ef5f6.o(.text.app_gap_process_handler) for app_gap_process_handler
    lto-llvm-8ef5f6.o(.rodata) refers to lto-llvm-8ef5f6.o(.text.app_timer_api_process_handler) for app_timer_api_process_handler
    lto-llvm-8ef5f6.o(.rodata) refers to lto-llvm-8ef5f6.o(.text.app_msg_utils_api_process_handler) for app_msg_utils_api_process_handler
    lto-llvm-8ef5f6.o(.rodata) refers to lto-llvm-8ef5f6.o(.text.app_sec_process_handler) for app_sec_process_handler
    lto-llvm-8ef5f6.o(.rodata) refers to lto-llvm-8ef5f6.o(.text.app_diss_process_handler) for app_diss_process_handler
    lto-llvm-8ef5f6.o(.rodata) refers to lto-llvm-8ef5f6.o(.text.app_bass_process_handler) for app_bass_process_handler
    lto-llvm-8ef5f6.o(.rodata) refers to lto-llvm-8ef5f6.o(.text.app_suotar_process_handler) for app_suotar_process_handler
    lto-llvm-8ef5f6.o(.rodata) refers to lto-llvm-8ef5f6.o(.text.app_custs1_process_handler) for app_custs1_process_handler
    lto-llvm-8ef5f6.o(.rodata) refers to lto-llvm-8ef5f6.o(.rodata.str1.1) for [Anonymous Symbol]
    rred.o(i.__ARM_common_ll_muluu) refers (Special) to iusefp.o(.text) for __I$use$fp
    depilogue.o(i.__ARM_clz) refers (Special) to iusefp.o(.text) for __I$use$fp


==============================================================================

Removing Unused input sections from the image.

    Removing startup_da14585_586.o(HEAP), (256 bytes).
    Removing dadd.o(.text), (356 bytes).
    Removing dmul.o(.text), (208 bytes).
    Removing ddiv.o(.text), (240 bytes).
    Removing dfixul.o(.text), (64 bytes).
    Removing cdrcmple.o(.text), (40 bytes).
    Removing depilogue.o(.text), (190 bytes).
    Removing dscalb.o(.text), (44 bytes).
    Removing dflti.o(.text), (40 bytes).
    Removing dfltui.o(.text), (28 bytes).
    Removing dfixi.o(.text), (72 bytes).
    Removing lto-llvm-8ef5f6.o(.text), (0 bytes).
    Removing lto-llvm-8ef5f6.o(.ARM.exidxsystem_DA14xxx), (8 bytes).
    Removing lto-llvm-8ef5f6.o(.ARM.exidx.text.HardFault_HandlerC), (8 bytes).
    Removing lto-llvm-8ef5f6.o(.ARM.exidx.text.NMI_HandlerC), (8 bytes).
    Removing lto-llvm-8ef5f6.o(.ARM.exidx.text.arch_printf_flush), (8 bytes).
    Removing lto-llvm-8ef5f6.o(.ARM.exidx.text.arch_printf), (8 bytes).
    Removing lto-llvm-8ef5f6.o(.ARM.exidx.text.arch_itoa), (8 bytes).
    Removing lto-llvm-8ef5f6.o(.ARM.exidx.text._puts), (8 bytes).
    Removing lto-llvm-8ef5f6.o(.ARM.exidx.text.arch_strlen), (8 bytes).
    Removing lto-llvm-8ef5f6.o(.ARM.exidx.text.uart_callback), (8 bytes).
    Removing lto-llvm-8ef5f6.o(.ARM.exidx.text.nvds_get_func), (8 bytes).
    Removing lto-llvm-8ef5f6.o(.ARM.exidx.text.nvds_init_func), (8 bytes).
    Removing lto-llvm-8ef5f6.o(.ARM.exidx.text.nvds_del_func), (8 bytes).
    Removing lto-llvm-8ef5f6.o(.ARM.exidx.text.nvds_put_func), (8 bytes).
    Removing lto-llvm-8ef5f6.o(.ARM.exidx.text.main), (8 bytes).
    Removing lto-llvm-8ef5f6.o(.ARM.exidx.text.platform_reset_func), (8 bytes).
    Removing lto-llvm-8ef5f6.o(.ARM.exidx.text.dbg_init_func_empty), (8 bytes).
    Removing lto-llvm-8ef5f6.o(.ARM.exidx.text.dbg_platform_reset_complete_func_empty), (8 bytes).
    Removing lto-llvm-8ef5f6.o(.ARM.exidx.text.crypto_init_func), (8 bytes).
    Removing lto-llvm-8ef5f6.o(.ARM.exidx.text.dia_rand_func), (8 bytes).
    Removing lto-llvm-8ef5f6.o(.ARM.exidx.text.dia_srand_func), (8 bytes).
    Removing lto-llvm-8ef5f6.o(.ARM.exidx.text.ba431_get_rand_func), (8 bytes).
    Removing lto-llvm-8ef5f6.o(.ARM.exidx.text.set_sleep_delay), (8 bytes).
    Removing lto-llvm-8ef5f6.o(.ARM.exidx.text.get_rc16m_count), (8 bytes).
    Removing lto-llvm-8ef5f6.o(.ARM.exidx.text.lld_sleep_us_2_lpcycles_sel_func), (8 bytes).
    Removing lto-llvm-8ef5f6.o(.ARM.exidx.text.lld_sleep_lpcycles_2_us_sel_func), (8 bytes).
    Removing lto-llvm-8ef5f6.o(.ARM.exidx.text.lld_sleep_init_func), (8 bytes).
    Removing lto-llvm-8ef5f6.o(.ARM.exidx.text.GPIO_ConfigurePin), (8 bytes).
    Removing lto-llvm-8ef5f6.o(.ARM.exidx.text.GPIO_SetActive), (8 bytes).
    Removing lto-llvm-8ef5f6.o(.ARM.exidx.text.GPIOn_Handler), (8 bytes).
    Removing lto-llvm-8ef5f6.o(.ARM.exidx.text.GPIO0_Handler), (8 bytes).
    Removing lto-llvm-8ef5f6.o(.ARM.exidx.text.GPIO1_Handler), (8 bytes).
    Removing lto-llvm-8ef5f6.o(.ARM.exidx.text.GPIO2_Handler), (8 bytes).
    Removing lto-llvm-8ef5f6.o(.ARM.exidx.text.GPIO3_Handler), (8 bytes).
    Removing lto-llvm-8ef5f6.o(.ARM.exidx.text.GPIO4_Handler), (8 bytes).
    Removing lto-llvm-8ef5f6.o(.ARM.exidx.text.WKUP_QUADEC_Handler), (8 bytes).
    Removing lto-llvm-8ef5f6.o(.ARM.exidx.text.battery_get_lvl), (8 bytes).
    Removing lto-llvm-8ef5f6.o(.ARM.exidx.text.adc_init), (8 bytes).
    Removing lto-llvm-8ef5f6.o(.ARM.exidx.text.adc_get_sample), (8 bytes).
    Removing lto-llvm-8ef5f6.o(.ARM.exidx.text.adc_get_vbat_sample), (8 bytes).
    Removing lto-llvm-8ef5f6.o(.ARM.exidx.text.adc_usDelay), (8 bytes).
    Removing lto-llvm-8ef5f6.o(.ARM.exidx.text.ADC_Handler), (8 bytes).
    Removing lto-llvm-8ef5f6.o(.ARM.exidx.text.spi_cs_high), (8 bytes).
    Removing lto-llvm-8ef5f6.o(.ARM.exidx.text.spi_set_bitmode), (8 bytes).
    Removing lto-llvm-8ef5f6.o(.ARM.exidx.text.spi_cs_low), (8 bytes).
    Removing lto-llvm-8ef5f6.o(.ARM.exidx.text.spi_access), (8 bytes).
    Removing lto-llvm-8ef5f6.o(.ARM.exidx.text.spi_transaction), (8 bytes).
    Removing lto-llvm-8ef5f6.o(.ARM.exidx.text.spi_flash_is_busy), (8 bytes).
    Removing lto-llvm-8ef5f6.o(.ARM.exidx.text.spi_flash_read_status_reg), (8 bytes).
    Removing lto-llvm-8ef5f6.o(.ARM.exidx.text.spi_flash_wait_till_ready), (8 bytes).
    Removing lto-llvm-8ef5f6.o(.ARM.exidx.text.spi_flash_release_from_power_down), (8 bytes).
    Removing lto-llvm-8ef5f6.o(.ARM.exidx.text.spi_flash_auto_detect), (8 bytes).
    Removing lto-llvm-8ef5f6.o(.ARM.exidx.text.spi_flash_ultra_deep_power_down), (8 bytes).
    Removing lto-llvm-8ef5f6.o(.ARM.exidx.text.spi_flash_write_enable), (8 bytes).
    Removing lto-llvm-8ef5f6.o(.ARM.exidx.text.spi_flash_read_data), (8 bytes).
    Removing lto-llvm-8ef5f6.o(.ARM.exidx.text.UART2_Handler), (8 bytes).
    Removing lto-llvm-8ef5f6.o(.ARM.exidx.text.uart_rx_isr), (8 bytes).
    Removing lto-llvm-8ef5f6.o(.ARM.exidx.text.uart_send), (8 bytes).
    Removing lto-llvm-8ef5f6.o(.ARM.exidx.text.I2C_Handler), (8 bytes).
    Removing lto-llvm-8ef5f6.o(.ARM.exidx.text.SysTick_Handler), (8 bytes).
    Removing lto-llvm-8ef5f6.o(.ARM.exidx.text.systick_wait), (8 bytes).
    Removing lto-llvm-8ef5f6.o(.ARM.exidx.text.lld_sleep_compensate_func), (8 bytes).
    Removing lto-llvm-8ef5f6.o(.ARM.exidx.text.BLE_WAKEUP_LP_Handler), (8 bytes).
    Removing lto-llvm-8ef5f6.o(.ARM.exidx.text.rwble_isr), (8 bytes).
    Removing lto-llvm-8ef5f6.o(.ARM.exidx.text.rf_regs), (8 bytes).
    Removing lto-llvm-8ef5f6.o(.ARM.exidx.text.rf_init_func), (8 bytes).
    Removing lto-llvm-8ef5f6.o(.ARM.exidx.text.rf_reg_rd), (8 bytes).
    Removing lto-llvm-8ef5f6.o(.ARM.exidx.text.rf_reg_wr), (8 bytes).
    Removing lto-llvm-8ef5f6.o(.ARM.exidx.text.rf_txpwr_dbm_get), (8 bytes).
    Removing lto-llvm-8ef5f6.o(.ARM.exidx.text.rf_sleep), (8 bytes).
    Removing lto-llvm-8ef5f6.o(.ARM.exidx.text.rf_reset), (8 bytes).
    Removing lto-llvm-8ef5f6.o(.ARM.exidx.text.RADIOCNTL_Handler), (8 bytes).
    Removing lto-llvm-8ef5f6.o(.ARM.exidx.text.rf_force_agc_enable), (8 bytes).
    Removing lto-llvm-8ef5f6.o(.ARM.exidx.text.rf_rssi_convert), (8 bytes).
    Removing lto-llvm-8ef5f6.o(.ARM.exidx.text.rf_reinit_func), (8 bytes).
    Removing lto-llvm-8ef5f6.o(.ARM.exidx.text.get_cfg_handle), (8 bytes).
    Removing lto-llvm-8ef5f6.o(.ARM.exidx.text.custs1_get_att_handle), (8 bytes).
    Removing lto-llvm-8ef5f6.o(.ARM.exidx.text.custs1_get_att_idx), (8 bytes).
    Removing lto-llvm-8ef5f6.o(.ARM.exidx.text.diss_init), (8 bytes).
    Removing lto-llvm-8ef5f6.o(.ARM.exidx.text.diss_destroy), (8 bytes).
    Removing lto-llvm-8ef5f6.o(.ARM.exidx.text.diss_create), (8 bytes).
    Removing lto-llvm-8ef5f6.o(.ARM.exidx.text.diss_cleanup), (8 bytes).
    Removing lto-llvm-8ef5f6.o(.ARM.exidx.text.diss_value_to_handle), (8 bytes).
    Removing lto-llvm-8ef5f6.o(.ARM.exidx.text.diss_set_value_req_handler), (8 bytes).
    Removing lto-llvm-8ef5f6.o(.ARM.exidx.text.gattc_read_req_ind_handler), (8 bytes).
    Removing lto-llvm-8ef5f6.o(.ARM.exidx.text.diss_value_cfm_handler), (8 bytes).
    Removing lto-llvm-8ef5f6.o(.ARM.exidx.text.custs1_init), (8 bytes).
    Removing lto-llvm-8ef5f6.o(.ARM.exidx.text.custs1_destroy), (8 bytes).
    Removing lto-llvm-8ef5f6.o(.ARM.exidx.text.custs1_create), (8 bytes).
    Removing lto-llvm-8ef5f6.o(.ARM.exidx.text.custs1_cleanup), (8 bytes).
    Removing lto-llvm-8ef5f6.o(.ARM.exidx.text.gattc_read_req_ind_handler.74), (8 bytes).
    Removing lto-llvm-8ef5f6.o(.ARM.exidx.text.gattc_write_req_ind_handler), (8 bytes).
    Removing lto-llvm-8ef5f6.o(.ARM.exidx.text.gattc_att_info_req_ind_handler), (8 bytes).
    Removing lto-llvm-8ef5f6.o(.ARM.exidx.text.gattc_cmp_evt_handler), (8 bytes).
    Removing lto-llvm-8ef5f6.o(.ARM.exidx.text.custs1_val_ntf_req_handler), (8 bytes).
    Removing lto-llvm-8ef5f6.o(.ARM.exidx.text.custs1_val_set_req_handler), (8 bytes).
    Removing lto-llvm-8ef5f6.o(.ARM.exidx.text.custs1_val_ind_req_handler), (8 bytes).
    Removing lto-llvm-8ef5f6.o(.ARM.exidx.text.custs1_att_info_rsp_handler), (8 bytes).
    Removing lto-llvm-8ef5f6.o(.ARM.exidx.text.custs1_value_req_rsp_handler), (8 bytes).
    Removing lto-llvm-8ef5f6.o(.ARM.exidx.text.custs1_exe_operation), (8 bytes).
    Removing lto-llvm-8ef5f6.o(.ARM.exidx.text.custs1_att_get_value), (8 bytes).
    Removing lto-llvm-8ef5f6.o(.ARM.exidx.text.custs1_set_ccc_value), (8 bytes).
    Removing lto-llvm-8ef5f6.o(.ARM.exidx.text.custs1_att_set_value), (8 bytes).
    Removing lto-llvm-8ef5f6.o(.ARM.exidx.text.prf_init_func), (8 bytes).
    Removing lto-llvm-8ef5f6.o(.ARM.exidx.text.prf_itf_get), (8 bytes).
    Removing lto-llvm-8ef5f6.o(.ARM.exidx.text.prf_add_profile_func), (8 bytes).
    Removing lto-llvm-8ef5f6.o(.ARM.exidx.text.prf_create_func), (8 bytes).
    Removing lto-llvm-8ef5f6.o(.ARM.exidx.text.prf_cleanup_func), (8 bytes).
    Removing lto-llvm-8ef5f6.o(.ARM.exidx.text.prf_env_get), (8 bytes).
    Removing lto-llvm-8ef5f6.o(.ARM.exidx.text.prf_get_id_from_task_func), (8 bytes).
    Removing lto-llvm-8ef5f6.o(.ARM.exidx.text.prf_get_task_from_id_func), (8 bytes).
    Removing lto-llvm-8ef5f6.o(.ARM.exidx.text.suotar_init), (8 bytes).
    Removing lto-llvm-8ef5f6.o(.ARM.exidx.text.suotar_destroy), (8 bytes).
    Removing lto-llvm-8ef5f6.o(.ARM.exidx.text.suotar_create), (8 bytes).
    Removing lto-llvm-8ef5f6.o(.ARM.exidx.text.suotar_cleanup), (8 bytes).
    Removing lto-llvm-8ef5f6.o(.ARM.exidx.text.gattc_read_req_ind_handler.101), (8 bytes).
    Removing lto-llvm-8ef5f6.o(.ARM.exidx.text.gattc_write_req_ind_handler.102), (8 bytes).
    Removing lto-llvm-8ef5f6.o(.ARM.exidx.text.suotar_mem_info_update_req_handler), (8 bytes).
    Removing lto-llvm-8ef5f6.o(.ARM.exidx.text.suotar_status_update_req_handler), (8 bytes).
    Removing lto-llvm-8ef5f6.o(.ARM.exidx.text.bass_init), (8 bytes).
    Removing lto-llvm-8ef5f6.o(.ARM.exidx.text.bass_destroy), (8 bytes).
    Removing lto-llvm-8ef5f6.o(.ARM.exidx.text.bass_create), (8 bytes).
    Removing lto-llvm-8ef5f6.o(.ARM.exidx.text.bass_cleanup), (8 bytes).
    Removing lto-llvm-8ef5f6.o(.ARM.exidx.text.bass_get_att_idx), (8 bytes).
    Removing lto-llvm-8ef5f6.o(.ARM.exidx.text.bass_exe_operation), (8 bytes).
    Removing lto-llvm-8ef5f6.o(.ARM.exidx.text.bass_notify_batt_lvl), (8 bytes).
    Removing lto-llvm-8ef5f6.o(.ARM.exidx.text.bass_enable_req_handler), (8 bytes).
    Removing lto-llvm-8ef5f6.o(.ARM.exidx.text.bass_batt_level_upd_req_handler), (8 bytes).
    Removing lto-llvm-8ef5f6.o(.ARM.exidx.text.gattc_att_info_req_ind_handler.107), (8 bytes).
    Removing lto-llvm-8ef5f6.o(.ARM.exidx.text.gattc_write_req_ind_handler.108), (8 bytes).
    Removing lto-llvm-8ef5f6.o(.ARM.exidx.text.gattc_read_req_ind_handler.109), (8 bytes).
    Removing lto-llvm-8ef5f6.o(.ARM.exidx.text.gattc_cmp_evt_handler.110), (8 bytes).
    Removing lto-llvm-8ef5f6.o(.ARM.exidx.text.app_db_init_next), (8 bytes).
    Removing lto-llvm-8ef5f6.o(.ARM.exidx.text.app_easy_gap_disconnect), (8 bytes).
    Removing lto-llvm-8ef5f6.o(.ARM.exidx.text.app_timer_set), (8 bytes).
    Removing lto-llvm-8ef5f6.o(.ARM.exidx.text.get_user_prf_srv_perm), (8 bytes).
    Removing lto-llvm-8ef5f6.o(.ARM.exidx.text.app_gap_process_handler), (8 bytes).
    Removing lto-llvm-8ef5f6.o(.ARM.exidx.text.gapm_device_ready_ind_handler), (8 bytes).
    Removing lto-llvm-8ef5f6.o(.ARM.exidx.text.gapm_cmp_evt_handler), (8 bytes).
    Removing lto-llvm-8ef5f6.o(.ARM.exidx.text.gapc_cmp_evt_handler), (8 bytes).
    Removing lto-llvm-8ef5f6.o(.ARM.exidx.text.gapc_connection_req_ind_handler), (8 bytes).
    Removing lto-llvm-8ef5f6.o(.ARM.exidx.text.gapc_disconnect_ind_handler), (8 bytes).
    Removing lto-llvm-8ef5f6.o(.ARM.exidx.text.gapc_get_dev_info_req_ind_handler), (8 bytes).
    Removing lto-llvm-8ef5f6.o(.ARM.exidx.text.gapc_set_dev_info_req_ind_handler), (8 bytes).
    Removing lto-llvm-8ef5f6.o(.ARM.exidx.text.gapm_profile_added_ind_handler), (8 bytes).
    Removing lto-llvm-8ef5f6.o(.ARM.exidx.text.gapm_adv_report_ind_handler), (8 bytes).
    Removing lto-llvm-8ef5f6.o(.ARM.exidx.text.gapc_param_update_req_ind_handler), (8 bytes).
    Removing lto-llvm-8ef5f6.o(.ARM.exidx.text.gapc_le_pkt_size_ind_handler), (8 bytes).
    Removing lto-llvm-8ef5f6.o(.ARM.exidx.text.gattc_svc_changed_cfg_ind_handler), (8 bytes).
    Removing lto-llvm-8ef5f6.o(.ARM.exidx.text.gapc_peer_features_ind_handler), (8 bytes).
    Removing lto-llvm-8ef5f6.o(.ARM.exidx.text.gapc_security_ind_handler), (8 bytes).
    Removing lto-llvm-8ef5f6.o(.ARM.exidx.text.app_sec_process_handler), (8 bytes).
    Removing lto-llvm-8ef5f6.o(.ARM.exidx.text.gapc_bond_req_ind_handler), (8 bytes).
    Removing lto-llvm-8ef5f6.o(.ARM.exidx.text.gapc_bond_ind_handler), (8 bytes).
    Removing lto-llvm-8ef5f6.o(.ARM.exidx.text.gapc_encrypt_req_ind_handler), (8 bytes).
    Removing lto-llvm-8ef5f6.o(.ARM.exidx.text.gapc_encrypt_ind_handler), (8 bytes).
    Removing lto-llvm-8ef5f6.o(.ARM.exidx.text.gapm_addr_solved_ind_handler), (8 bytes).
    Removing lto-llvm-8ef5f6.o(.ARM.exidx.text.gapm_ral_size_ind_handler), (8 bytes).
    Removing lto-llvm-8ef5f6.o(.ARM.exidx.text.gapm_ral_addr_ind_handler), (8 bytes).
    Removing lto-llvm-8ef5f6.o(.ARM.exidx.text.app_bass_create_db), (8 bytes).
    Removing lto-llvm-8ef5f6.o(.ARM.exidx.text.app_bass_enable), (8 bytes).
    Removing lto-llvm-8ef5f6.o(.ARM.exidx.text.app_batt_lvl), (8 bytes).
    Removing lto-llvm-8ef5f6.o(.ARM.exidx.text.app_bass_process_handler), (8 bytes).
    Removing lto-llvm-8ef5f6.o(.ARM.exidx.text.bass_enable_rsp_handler), (8 bytes).
    Removing lto-llvm-8ef5f6.o(.ARM.exidx.text.bass_batt_level_upd_rsp_handler), (8 bytes).
    Removing lto-llvm-8ef5f6.o(.ARM.exidx.text.bass_batt_level_ntf_cfg_ind_handler), (8 bytes).
    Removing lto-llvm-8ef5f6.o(.ARM.exidx.text.app_bass_timer_handler), (8 bytes).
    Removing lto-llvm-8ef5f6.o(.ARM.exidx.text.app_bass_alert_timer_handler), (8 bytes).
    Removing lto-llvm-8ef5f6.o(.ARM.exidx.text.app_bass_connect_timer_handler), (8 bytes).
    Removing lto-llvm-8ef5f6.o(.ARM.exidx.text.app_diss_create_db), (8 bytes).
    Removing lto-llvm-8ef5f6.o(.ARM.exidx.text.app_diss_process_handler), (8 bytes).
    Removing lto-llvm-8ef5f6.o(.ARM.exidx.text.diss_value_req_ind_handler), (8 bytes).
    Removing lto-llvm-8ef5f6.o(.ARM.exidx.text.app_suotar_create_db), (8 bytes).
    Removing lto-llvm-8ef5f6.o(.ARM.exidx.text.suotar_send_status_update_req), (8 bytes).
    Removing lto-llvm-8ef5f6.o(.ARM.exidx.text.app_suotar_stop), (8 bytes).
    Removing lto-llvm-8ef5f6.o(.ARM.exidx.text.app_suotar_spi_config), (8 bytes).
    Removing lto-llvm-8ef5f6.o(.ARM.exidx.text.app_spi_flash_init), (8 bytes).
    Removing lto-llvm-8ef5f6.o(.ARM.exidx.text.app_flash_write_data), (8 bytes).
    Removing lto-llvm-8ef5f6.o(.ARM.exidx.text.app_erase_flash_sectors), (8 bytes).
    Removing lto-llvm-8ef5f6.o(.ARM.exidx.text.suotar_send_mem_info_update_req), (8 bytes).
    Removing lto-llvm-8ef5f6.o(.ARM.exidx.text.app_read_ext_mem), (8 bytes).
    Removing lto-llvm-8ef5f6.o(.ARM.exidx.text.app_suotar_process_handler), (8 bytes).
    Removing lto-llvm-8ef5f6.o(.ARM.exidx.text.suotar_patch_mem_dev_ind_handler), (8 bytes).
    Removing lto-llvm-8ef5f6.o(.ARM.exidx.text.suotar_gpio_map_ind_handler), (8 bytes).
    Removing lto-llvm-8ef5f6.o(.ARM.exidx.text.suotar_patch_len_ind_handler), (8 bytes).
    Removing lto-llvm-8ef5f6.o(.ARM.exidx.text.suotar_patch_data_ind_handler), (8 bytes).
    Removing lto-llvm-8ef5f6.o(.ARM.exidx.text.app_entry_point_handler), (8 bytes).
    Removing lto-llvm-8ef5f6.o(.ARM.exidx.text.app_std_process_event), (8 bytes).
    Removing lto-llvm-8ef5f6.o(.ARM.exidx.text.app_msg_utils_api_process_handler), (8 bytes).
    Removing lto-llvm-8ef5f6.o(.ARM.exidx.text.app_easy_security_tk_exch), (8 bytes).
    Removing lto-llvm-8ef5f6.o(.ARM.exidx.text.ltk_exch_create_msg), (8 bytes).
    Removing lto-llvm-8ef5f6.o(.ARM.exidx.text.app_timer_api_process_handler), (8 bytes).
    Removing lto-llvm-8ef5f6.o(.ARM.exidx.text.timer_canceled_handler), (8 bytes).
    Removing lto-llvm-8ef5f6.o(.ARM.exidx.text.timer_modified_handler), (8 bytes).
    Removing lto-llvm-8ef5f6.o(.ARM.exidx.text.create_timer), (8 bytes).
    Removing lto-llvm-8ef5f6.o(.ARM.exidx.text.app_easy_timer), (8 bytes).
    Removing lto-llvm-8ef5f6.o(.ARM.exidx.text.app_easy_timer_cancel), (8 bytes).
    Removing lto-llvm-8ef5f6.o(.ARM.exidx.text.app_custs1_create_db), (8 bytes).
    Removing lto-llvm-8ef5f6.o(.ARM.exidx.text.app_custs1_process_handler), (8 bytes).
    Removing lto-llvm-8ef5f6.o(.ARM.exidx.text.app_fill_random_byte_array), (8 bytes).
    Removing lto-llvm-8ef5f6.o(.ARM.exidx.text.periph_init), (8 bytes).
    Removing lto-llvm-8ef5f6.o(.ARM.exidx.text.on_suotar_status_change), (8 bytes).
    Removing lto-llvm-8ef5f6.o(.ARM.exidx.text.user_app_adv_start), (8 bytes).
    Removing lto-llvm-8ef5f6.o(.ARM.exidx.text.adv_data_update_timer_cb), (8 bytes).
    Removing lto-llvm-8ef5f6.o(.ARM.exidx.text.mnf_data_update), (8 bytes).
    Removing lto-llvm-8ef5f6.o(.ARM.exidx.text.param_update_request_timer_cb), (8 bytes).
    Removing lto-llvm-8ef5f6.o(.ARM.exidx.text.user_catch_rest_hndl), (8 bytes).
    Removing lto-llvm-8ef5f6.o(.ARM.exidx.text.EPD_GPIO_init), (8 bytes).
    Removing lto-llvm-8ef5f6.o(.ARM.exidx.text.DEV_SPI_WriteByte), (8 bytes).
    Removing lto-llvm-8ef5f6.o(.ARM.exidx.text.EPD_2IN13_V2_SendCommand), (8 bytes).
    Removing lto-llvm-8ef5f6.o(.ARM.exidx.text.EPD_2IN13_V2_SendData), (8 bytes).
    Removing lto-llvm-8ef5f6.o(.ARM.exidx.text.EPD_2IN13_V2_ReadBusy), (8 bytes).
    Removing lto-llvm-8ef5f6.o(.ARM.exidx.text.do_display_update_with_analog_clock), (8 bytes).
    Removing lto-llvm-8ef5f6.o(.ARM.exidx.text.spi_flash_peripheral_init), (8 bytes).
    Removing lto-llvm-8ef5f6.o(.ARM.exidx.text.do_min_work_with_analog_clock), (8 bytes).
    Removing lto-llvm-8ef5f6.o(.ARM.exidx.text.display), (8 bytes).
    Removing lto-llvm-8ef5f6.o(.ARM.exidx.text.bls_att_pushNotifyData), (8 bytes).
    Removing lto-llvm-8ef5f6.o(.ARM.exidx.text.transformTime), (8 bytes).
    Removing lto-llvm-8ef5f6.o(.ARM.exidx.text.Paint_SetPixel), (8 bytes).
    Removing lto-llvm-8ef5f6.o(.ARM.exidx.text.EPD_DrawUTF8), (8 bytes).
    Removing lto-llvm-8ef5f6.o(.ARM.exidx.text.LUNAR_SolarToLunar), (8 bytes).
    Removing lto-llvm-8ef5f6.o(.ARM.exidx.text.SolarToInt), (8 bytes).
    Removing lto-llvm-8ef5f6.o(.ARM.use_no_argv), (4 bytes).
    Removing patch.o(i.__ARM_common_switch8), (26 bytes).
    Removing depilogue.o(i.__ARM_clz), (46 bytes).

236 unused section(s) (total 3382 bytes) removed from the image.

==============================================================================

Image Symbol Table

    Local Symbols

    Symbol Name                              Value     Ov Type        Size  Object(Section)

    ../clib/microlib/division.c              0x00000000   Number         0  uldiv.o ABSOLUTE
    ../clib/microlib/errno.c                 0x00000000   Number         0  errno.o ABSOLUTE
    ../clib/microlib/init/entry.s            0x00000000   Number         0  entry.o ABSOLUTE
    ../clib/microlib/init/entry.s            0x00000000   Number         0  entry2.o ABSOLUTE
    ../clib/microlib/init/entry.s            0x00000000   Number         0  entry5.o ABSOLUTE
    ../clib/microlib/init/entry.s            0x00000000   Number         0  entry7a.o ABSOLUTE
    ../clib/microlib/init/entry.s            0x00000000   Number         0  entry7b.o ABSOLUTE
    ../clib/microlib/init/entry.s            0x00000000   Number         0  entry8a.o ABSOLUTE
    ../clib/microlib/init/entry.s            0x00000000   Number         0  entry8b.o ABSOLUTE
    ../clib/microlib/init/entry.s            0x00000000   Number         0  entry9a.o ABSOLUTE
    ../clib/microlib/init/entry.s            0x00000000   Number         0  entry9b.o ABSOLUTE
    ../clib/microlib/init/entry.s            0x00000000   Number         0  entry10a.o ABSOLUTE
    ../clib/microlib/init/entry.s            0x00000000   Number         0  entry10b.o ABSOLUTE
    ../clib/microlib/init/entry.s            0x00000000   Number         0  entry11a.o ABSOLUTE
    ../clib/microlib/init/entry.s            0x00000000   Number         0  entry11b.o ABSOLUTE
    ../clib/microlib/longlong.c              0x00000000   Number         0  llushr.o ABSOLUTE
    ../clib/microlib/longlong.c              0x00000000   Number         0  llsshr.o ABSOLUTE
    ../clib/microlib/printf/printf.c         0x00000000   Number         0  printfb.o ABSOLUTE
    ../clib/microlib/printf/printf.c         0x00000000   Number         0  printf0.o ABSOLUTE
    ../clib/microlib/printf/printf.c         0x00000000   Number         0  printf1.o ABSOLUTE
    ../clib/microlib/printf/printf.c         0x00000000   Number         0  printf2.o ABSOLUTE
    ../clib/microlib/printf/printf.c         0x00000000   Number         0  printf3.o ABSOLUTE
    ../clib/microlib/printf/printf.c         0x00000000   Number         0  printf4.o ABSOLUTE
    ../clib/microlib/printf/printf.c         0x00000000   Number         0  printf5.o ABSOLUTE
    ../clib/microlib/printf/printf.c         0x00000000   Number         0  printf6.o ABSOLUTE
    ../clib/microlib/printf/printf.c         0x00000000   Number         0  printf7.o ABSOLUTE
    ../clib/microlib/printf/printf.c         0x00000000   Number         0  printf8.o ABSOLUTE
    ../clib/microlib/printf/printf.c         0x00000000   Number         0  printfa.o ABSOLUTE
    ../clib/microlib/printf/stubs.s          0x00000000   Number         0  printfstubs.o ABSOLUTE
    ../clib/microlib/stdio/fputc.c           0x00000000   Number         0  fputc.o ABSOLUTE
    ../clib/microlib/stdio/fputc.c           0x00000000   Number         0  fputc_h.o ABSOLUTE
    ../clib/microlib/stdio/semi.s            0x00000000   Number         0  semi.o ABSOLUTE
    ../clib/microlib/stdio/streams.c         0x00000000   Number         0  stdout.o ABSOLUTE
    ../clib/microlib/stubs.s                 0x00000000   Number         0  iusefp.o ABSOLUTE
    ../clib/microlib/stubs.s                 0x00000000   Number         0  iusesemip.o ABSOLUTE
    ../fplib/microlib/fpadd.c                0x00000000   Number         0  dadd.o ABSOLUTE
    ../fplib/microlib/fpdiv.c                0x00000000   Number         0  ddiv.o ABSOLUTE
    ../fplib/microlib/fpepilogue.c           0x00000000   Number         0  depilogue.o ABSOLUTE
    ../fplib/microlib/fpfix.c                0x00000000   Number         0  dfixul.o ABSOLUTE
    ../fplib/microlib/fpfix.c                0x00000000   Number         0  dfixi.o ABSOLUTE
    ../fplib/microlib/fpflt.c                0x00000000   Number         0  dflti.o ABSOLUTE
    ../fplib/microlib/fpflt.c                0x00000000   Number         0  dfltui.o ABSOLUTE
    ../fplib/microlib/fpmul.c                0x00000000   Number         0  dmul.o ABSOLUTE
    ../fplib/microlib/fpscalb.c              0x00000000   Number         0  dscalb.o ABSOLUTE
    ../mathlib/cos.c                         0x00000000   Number         0  cos.o ABSOLUTE
    ../mathlib/cos_i.c                       0x00000000   Number         0  cos_i.o ABSOLUTE
    ../mathlib/dunder.c                      0x00000000   Number         0  dunder.o ABSOLUTE
    ../mathlib/fpclassify.c                  0x00000000   Number         0  fpclassify.o ABSOLUTE
    ../mathlib/poly.c                        0x00000000   Number         0  poly.o ABSOLUTE
    ../mathlib/rred.c                        0x00000000   Number         0  rred.o ABSOLUTE
    ../mathlib/sin.c                         0x00000000   Number         0  sin.o ABSOLUTE
    ../mathlib/sin_i.c                       0x00000000   Number         0  sin_i.o ABSOLUTE
    ..\..\..\..\..\sdk\platform\arch\boot\ARM\startup_DA14585_586.s 0x00000000   Number         0  startup_da14585_586.o ABSOLUTE
    ..\..\src\DA14585_586\patch.c            0x00000000   Number         0  patch.o ABSOLUTE
    ..\..\src\DA14585_586\rf_calibration.c   0x00000000   Number         0  rf_calibration.o ABSOLUTE
    ..\..\src\DA14585_586\smpc_util.c        0x00000000   Number         0  smpc_util.o ABSOLUTE
    cdrcmple.s                               0x00000000   Number         0  cdrcmple.o ABSOLUTE
    handlers.s                               0x00000000   Number         0  handlers.o ABSOLUTE
    init.s                                   0x00000000   Number         0  init.o ABSOLUTE
    ld-temp.o                                0x00000000   Number         0  lto-llvm-8ef5f6.o ABSOLUTE
    RESET                                    0x07fc0000   Section      160  startup_da14585_586.o(RESET)
    rfadc_data_buffer                        0x07fc0110   Data        1024  lto-llvm-8ef5f6.o(.bss.trng_buffer_area_zi)
    [Anonymous Symbol]                       0x07fc0110   Section        0  lto-llvm-8ef5f6.o(.bss.trng_buffer_area_zi)
    .ARM.Collect$$$$00000000                 0x07fc0510   Section        0  entry.o(.ARM.Collect$$$$00000000)
    .ARM.Collect$$$$00000001                 0x07fc0510   Section        4  entry2.o(.ARM.Collect$$$$00000001)
    .ARM.Collect$$$$00000004                 0x07fc0514   Section        4  entry5.o(.ARM.Collect$$$$00000004)
    .ARM.Collect$$$$00000008                 0x07fc0518   Section        0  entry7b.o(.ARM.Collect$$$$00000008)
    .ARM.Collect$$$$0000000A                 0x07fc0518   Section        0  entry8b.o(.ARM.Collect$$$$0000000A)
    .ARM.Collect$$$$0000000B                 0x07fc0518   Section        8  entry9a.o(.ARM.Collect$$$$0000000B)
    __lit__00000000                          0x07fc0520   Data           4  entry2.o(.ARM.Collect$$$$00002712)
    .ARM.Collect$$$$0000000D                 0x07fc0520   Section        0  entry10a.o(.ARM.Collect$$$$0000000D)
    .ARM.Collect$$$$0000000F                 0x07fc0520   Section        0  entry11a.o(.ARM.Collect$$$$0000000F)
    .ARM.Collect$$$$00002712                 0x07fc0520   Section        4  entry2.o(.ARM.Collect$$$$00002712)
    .text                                    0x07fc0524   Section       80  startup_da14585_586.o(.text)
    NMI_Handler                              0x07fc052d   Thumb Code    24  startup_da14585_586.o(.text)
    HardFault_Handler                        0x07fc0545   Thumb Code    24  startup_da14585_586.o(.text)
    .text                                    0x07fc0574   Section        0  patch.o(.text)
    PATCHED_gapm_reset_cmd_handler           0x07fc0d9d   Thumb Code    78  patch.o(.text)
    l2cc_handle_invalid_pdu                  0x07fc0e59   Thumb Code   276  patch.o(.text)
    PATCHED_hci_acl_data_rx_handler          0x07fc0f6d   Thumb Code   620  patch.o(.text)
    PATCHED_smpc_recv_pair_rand_pdu          0x07fc15b9   Thumb Code   306  patch.o(.text)
    PATCHED_llc_data_ind_handler             0x07fc1755   Thumb Code   146  patch.o(.text)
    .text                                    0x07fc1ab8   Section        0  rf_calibration.o(.text)
    .text                                    0x07fc1bcc   Section        0  smpc_util.o(.text)
    .text                                    0x07fc1cb4   Section        0  uldiv.o(.text)
    .text                                    0x07fc1d14   Section       36  init.o(.text)
    .text                                    0x07fc1d38   Section        0  llushr.o(.text)
    [Anonymous Symbol]                       0x07fc1d5c   Section        0  lto-llvm-8ef5f6.o(.text.ADC_Handler)
    __arm_cp.40_0                            0x07fc1d64   Number         4  lto-llvm-8ef5f6.o(.text.ADC_Handler)
    [Anonymous Symbol]                       0x07fc1d68   Section        0  lto-llvm-8ef5f6.o(.text.BLE_WAKEUP_LP_Handler)
    __arm_cp.61_0                            0x07fc1ed0   Number         4  lto-llvm-8ef5f6.o(.text.BLE_WAKEUP_LP_Handler)
    __arm_cp.61_1                            0x07fc1ed4   Number         4  lto-llvm-8ef5f6.o(.text.BLE_WAKEUP_LP_Handler)
    __arm_cp.61_2                            0x07fc1ed8   Number         4  lto-llvm-8ef5f6.o(.text.BLE_WAKEUP_LP_Handler)
    __arm_cp.61_3                            0x07fc1edc   Number         4  lto-llvm-8ef5f6.o(.text.BLE_WAKEUP_LP_Handler)
    __arm_cp.61_4                            0x07fc1ee0   Number         4  lto-llvm-8ef5f6.o(.text.BLE_WAKEUP_LP_Handler)
    __arm_cp.61_5                            0x07fc1ee4   Number         4  lto-llvm-8ef5f6.o(.text.BLE_WAKEUP_LP_Handler)
    __arm_cp.61_6                            0x07fc1ee8   Number         4  lto-llvm-8ef5f6.o(.text.BLE_WAKEUP_LP_Handler)
    __arm_cp.61_7                            0x07fc1eec   Number         4  lto-llvm-8ef5f6.o(.text.BLE_WAKEUP_LP_Handler)
    DEV_SPI_WriteByte                        0x07fc1ef1   Thumb Code     8  lto-llvm-8ef5f6.o(.text.DEV_SPI_WriteByte)
    [Anonymous Symbol]                       0x07fc1ef0   Section        0  lto-llvm-8ef5f6.o(.text.DEV_SPI_WriteByte)
    EPD_2IN13_V2_ReadBusy                    0x07fc1ef9   Thumb Code    28  lto-llvm-8ef5f6.o(.text.EPD_2IN13_V2_ReadBusy)
    [Anonymous Symbol]                       0x07fc1ef8   Section        0  lto-llvm-8ef5f6.o(.text.EPD_2IN13_V2_ReadBusy)
    __arm_cp.210_0                           0x07fc1f14   Number         4  lto-llvm-8ef5f6.o(.text.EPD_2IN13_V2_ReadBusy)
    __arm_cp.210_2                           0x07fc1f18   Number         4  lto-llvm-8ef5f6.o(.text.EPD_2IN13_V2_ReadBusy)
    EPD_2IN13_V2_SendCommand                 0x07fc1f1d   Thumb Code    24  lto-llvm-8ef5f6.o(.text.EPD_2IN13_V2_SendCommand)
    [Anonymous Symbol]                       0x07fc1f1c   Section        0  lto-llvm-8ef5f6.o(.text.EPD_2IN13_V2_SendCommand)
    __arm_cp.208_0                           0x07fc1f34   Number         4  lto-llvm-8ef5f6.o(.text.EPD_2IN13_V2_SendCommand)
    __arm_cp.208_1                           0x07fc1f38   Number         4  lto-llvm-8ef5f6.o(.text.EPD_2IN13_V2_SendCommand)
    EPD_2IN13_V2_SendData                    0x07fc1f3d   Thumb Code    24  lto-llvm-8ef5f6.o(.text.EPD_2IN13_V2_SendData)
    [Anonymous Symbol]                       0x07fc1f3c   Section        0  lto-llvm-8ef5f6.o(.text.EPD_2IN13_V2_SendData)
    EPD_DrawUTF8                             0x07fc1f55   Thumb Code   456  lto-llvm-8ef5f6.o(.text.EPD_DrawUTF8)
    [Anonymous Symbol]                       0x07fc1f54   Section        0  lto-llvm-8ef5f6.o(.text.EPD_DrawUTF8)
    __arm_cp.218_0                           0x07fc211c   Number         4  lto-llvm-8ef5f6.o(.text.EPD_DrawUTF8)
    __arm_cp.218_1                           0x07fc2120   Number         4  lto-llvm-8ef5f6.o(.text.EPD_DrawUTF8)
    __arm_cp.218_2                           0x07fc2124   Number         4  lto-llvm-8ef5f6.o(.text.EPD_DrawUTF8)
    __arm_cp.218_3                           0x07fc2128   Number         4  lto-llvm-8ef5f6.o(.text.EPD_DrawUTF8)
    EPD_GPIO_init                            0x07fc212d   Thumb Code    44  lto-llvm-8ef5f6.o(.text.EPD_GPIO_init)
    [Anonymous Symbol]                       0x07fc212c   Section        0  lto-llvm-8ef5f6.o(.text.EPD_GPIO_init)
    __arm_cp.206_0                           0x07fc2158   Number         4  lto-llvm-8ef5f6.o(.text.EPD_GPIO_init)
    [Anonymous Symbol]                       0x07fc215c   Section        0  lto-llvm-8ef5f6.o(.text.GPIO0_Handler)
    [Anonymous Symbol]                       0x07fc2166   Section        0  lto-llvm-8ef5f6.o(.text.GPIO1_Handler)
    [Anonymous Symbol]                       0x07fc2170   Section        0  lto-llvm-8ef5f6.o(.text.GPIO2_Handler)
    [Anonymous Symbol]                       0x07fc217a   Section        0  lto-llvm-8ef5f6.o(.text.GPIO3_Handler)
    [Anonymous Symbol]                       0x07fc2184   Section        0  lto-llvm-8ef5f6.o(.text.GPIO4_Handler)
    GPIO_ConfigurePin                        0x07fc2191   Thumb Code    48  lto-llvm-8ef5f6.o(.text.GPIO_ConfigurePin)
    [Anonymous Symbol]                       0x07fc2190   Section        0  lto-llvm-8ef5f6.o(.text.GPIO_ConfigurePin)
    GPIO_SetActive                           0x07fc21c1   Thumb Code    20  lto-llvm-8ef5f6.o(.text.GPIO_SetActive)
    [Anonymous Symbol]                       0x07fc21c0   Section        0  lto-llvm-8ef5f6.o(.text.GPIO_SetActive)
    __arm_cp.27_0                            0x07fc21d4   Number         4  lto-llvm-8ef5f6.o(.text.GPIO_SetActive)
    GPIOn_Handler                            0x07fc21d9   Thumb Code    60  lto-llvm-8ef5f6.o(.text.GPIOn_Handler)
    [Anonymous Symbol]                       0x07fc21d8   Section        0  lto-llvm-8ef5f6.o(.text.GPIOn_Handler)
    __arm_cp.28_0                            0x07fc2214   Number         4  lto-llvm-8ef5f6.o(.text.GPIOn_Handler)
    __arm_cp.28_1                            0x07fc2218   Number         4  lto-llvm-8ef5f6.o(.text.GPIOn_Handler)
    [Anonymous Symbol]                       0x07fc221c   Section        0  lto-llvm-8ef5f6.o(.text.HardFault_HandlerC)
    __arm_cp.1_0                             0x07fc222c   Number         4  lto-llvm-8ef5f6.o(.text.HardFault_HandlerC)
    __arm_cp.1_1                             0x07fc2230   Number         4  lto-llvm-8ef5f6.o(.text.HardFault_HandlerC)
    [Anonymous Symbol]                       0x07fc2234   Section        0  lto-llvm-8ef5f6.o(.text.I2C_Handler)
    __arm_cp.57_0                            0x07fc2240   Number         4  lto-llvm-8ef5f6.o(.text.I2C_Handler)
    LUNAR_SolarToLunar                       0x07fc2245   Thumb Code   204  lto-llvm-8ef5f6.o(.text.LUNAR_SolarToLunar)
    [Anonymous Symbol]                       0x07fc2244   Section        0  lto-llvm-8ef5f6.o(.text.LUNAR_SolarToLunar)
    __arm_cp.219_0                           0x07fc2310   Number         4  lto-llvm-8ef5f6.o(.text.LUNAR_SolarToLunar)
    __arm_cp.219_1                           0x07fc2314   Number         4  lto-llvm-8ef5f6.o(.text.LUNAR_SolarToLunar)
    __arm_cp.219_2                           0x07fc2318   Number         4  lto-llvm-8ef5f6.o(.text.LUNAR_SolarToLunar)
    __arm_cp.219_3                           0x07fc231c   Number         4  lto-llvm-8ef5f6.o(.text.LUNAR_SolarToLunar)
    [Anonymous Symbol]                       0x07fc2320   Section        0  lto-llvm-8ef5f6.o(.text.NMI_HandlerC)
    __arm_cp.2_0                             0x07fc2350   Number         4  lto-llvm-8ef5f6.o(.text.NMI_HandlerC)
    __arm_cp.2_1                             0x07fc2354   Number         4  lto-llvm-8ef5f6.o(.text.NMI_HandlerC)
    __arm_cp.2_2                             0x07fc2358   Number         4  lto-llvm-8ef5f6.o(.text.NMI_HandlerC)
    Paint_SetPixel                           0x07fc235d   Thumb Code   136  lto-llvm-8ef5f6.o(.text.Paint_SetPixel)
    [Anonymous Symbol]                       0x07fc235c   Section        0  lto-llvm-8ef5f6.o(.text.Paint_SetPixel)
    __arm_cp.217_0                           0x07fc23e4   Number         4  lto-llvm-8ef5f6.o(.text.Paint_SetPixel)
    __arm_cp.217_1                           0x07fc23e8   Number         4  lto-llvm-8ef5f6.o(.text.Paint_SetPixel)
    RADIOCNTL_Handler                        0x07fc23ed   Thumb Code     2  lto-llvm-8ef5f6.o(.text.RADIOCNTL_Handler)
    [Anonymous Symbol]                       0x07fc23ec   Section        0  lto-llvm-8ef5f6.o(.text.RADIOCNTL_Handler)
    SolarToInt                               0x07fc23ef   Thumb Code    94  lto-llvm-8ef5f6.o(.text.SolarToInt)
    [Anonymous Symbol]                       0x07fc23ee   Section        0  lto-llvm-8ef5f6.o(.text.SolarToInt)
    [Anonymous Symbol]                       0x07fc244c   Section        0  lto-llvm-8ef5f6.o(.text.SysTick_Handler)
    [Anonymous Symbol]                       0x07fc2450   Section        0  lto-llvm-8ef5f6.o(.text.UART2_Handler)
    __arm_cp.54_0                            0x07fc24dc   Number         4  lto-llvm-8ef5f6.o(.text.UART2_Handler)
    __arm_cp.54_3                            0x07fc24e0   Number         4  lto-llvm-8ef5f6.o(.text.UART2_Handler)
    [Anonymous Symbol]                       0x07fc24e4   Section        0  lto-llvm-8ef5f6.o(.text.WKUP_QUADEC_Handler)
    __arm_cp.34_0                            0x07fc253c   Number         4  lto-llvm-8ef5f6.o(.text.WKUP_QUADEC_Handler)
    __arm_cp.34_1                            0x07fc2540   Number         4  lto-llvm-8ef5f6.o(.text.WKUP_QUADEC_Handler)
    _puts                                    0x07fc2545   Thumb Code    40  lto-llvm-8ef5f6.o(.text._puts)
    [Anonymous Symbol]                       0x07fc2544   Section        0  lto-llvm-8ef5f6.o(.text._puts)
    adc_get_sample                           0x07fc256d   Thumb Code    32  lto-llvm-8ef5f6.o(.text.adc_get_sample)
    [Anonymous Symbol]                       0x07fc256c   Section        0  lto-llvm-8ef5f6.o(.text.adc_get_sample)
    __arm_cp.37_1                            0x07fc258c   Number         4  lto-llvm-8ef5f6.o(.text.adc_get_sample)
    adc_get_vbat_sample                      0x07fc2591   Thumb Code    88  lto-llvm-8ef5f6.o(.text.adc_get_vbat_sample)
    [Anonymous Symbol]                       0x07fc2590   Section        0  lto-llvm-8ef5f6.o(.text.adc_get_vbat_sample)
    __arm_cp.38_0                            0x07fc25e8   Number         4  lto-llvm-8ef5f6.o(.text.adc_get_vbat_sample)
    __arm_cp.38_2                            0x07fc25ec   Number         4  lto-llvm-8ef5f6.o(.text.adc_get_vbat_sample)
    adc_init                                 0x07fc25f1   Thumb Code    92  lto-llvm-8ef5f6.o(.text.adc_init)
    [Anonymous Symbol]                       0x07fc25f0   Section        0  lto-llvm-8ef5f6.o(.text.adc_init)
    __arm_cp.36_0                            0x07fc264c   Number         4  lto-llvm-8ef5f6.o(.text.adc_init)
    __arm_cp.36_1                            0x07fc2650   Number         4  lto-llvm-8ef5f6.o(.text.adc_init)
    __arm_cp.36_2                            0x07fc2654   Number         4  lto-llvm-8ef5f6.o(.text.adc_init)
    __arm_cp.36_3                            0x07fc2658   Number         4  lto-llvm-8ef5f6.o(.text.adc_init)
    __arm_cp.36_4                            0x07fc265c   Number         4  lto-llvm-8ef5f6.o(.text.adc_init)
    __arm_cp.36_5                            0x07fc2660   Number         4  lto-llvm-8ef5f6.o(.text.adc_init)
    adc_usDelay                              0x07fc2665   Thumb Code    32  lto-llvm-8ef5f6.o(.text.adc_usDelay)
    [Anonymous Symbol]                       0x07fc2664   Section        0  lto-llvm-8ef5f6.o(.text.adc_usDelay)
    adv_data_update_timer_cb                 0x07fc2685   Thumb Code   128  lto-llvm-8ef5f6.o(.text.adv_data_update_timer_cb)
    [Anonymous Symbol]                       0x07fc2684   Section        0  lto-llvm-8ef5f6.o(.text.adv_data_update_timer_cb)
    __arm_cp.202_1                           0x07fc2704   Number         4  lto-llvm-8ef5f6.o(.text.adv_data_update_timer_cb)
    __arm_cp.202_2                           0x07fc2708   Number         4  lto-llvm-8ef5f6.o(.text.adv_data_update_timer_cb)
    __arm_cp.202_3                           0x07fc270c   Number         4  lto-llvm-8ef5f6.o(.text.adv_data_update_timer_cb)
    __arm_cp.202_4                           0x07fc2710   Number         4  lto-llvm-8ef5f6.o(.text.adv_data_update_timer_cb)
    __arm_cp.202_5                           0x07fc2714   Number         4  lto-llvm-8ef5f6.o(.text.adv_data_update_timer_cb)
    app_bass_alert_timer_handler             0x07fc2719   Thumb Code    80  lto-llvm-8ef5f6.o(.text.app_bass_alert_timer_handler)
    [Anonymous Symbol]                       0x07fc2718   Section        0  lto-llvm-8ef5f6.o(.text.app_bass_alert_timer_handler)
    app_bass_connect_timer_handler           0x07fc2769   Thumb Code    72  lto-llvm-8ef5f6.o(.text.app_bass_connect_timer_handler)
    [Anonymous Symbol]                       0x07fc2768   Section        0  lto-llvm-8ef5f6.o(.text.app_bass_connect_timer_handler)
    __arm_cp.167_0                           0x07fc27b0   Number         4  lto-llvm-8ef5f6.o(.text.app_bass_connect_timer_handler)
    __arm_cp.167_1                           0x07fc27b4   Number         4  lto-llvm-8ef5f6.o(.text.app_bass_connect_timer_handler)
    __arm_cp.167_2                           0x07fc27b8   Number         4  lto-llvm-8ef5f6.o(.text.app_bass_connect_timer_handler)
    app_bass_create_db                       0x07fc27bd   Thumb Code    68  lto-llvm-8ef5f6.o(.text.app_bass_create_db)
    [Anonymous Symbol]                       0x07fc27bc   Section        0  lto-llvm-8ef5f6.o(.text.app_bass_create_db)
    __arm_cp.158_1                           0x07fc2800   Number         4  lto-llvm-8ef5f6.o(.text.app_bass_create_db)
    app_bass_enable                          0x07fc2805   Thumb Code    76  lto-llvm-8ef5f6.o(.text.app_bass_enable)
    [Anonymous Symbol]                       0x07fc2804   Section        0  lto-llvm-8ef5f6.o(.text.app_bass_enable)
    app_bass_process_handler                 0x07fc2851   Thumb Code    28  lto-llvm-8ef5f6.o(.text.app_bass_process_handler)
    [Anonymous Symbol]                       0x07fc2850   Section        0  lto-llvm-8ef5f6.o(.text.app_bass_process_handler)
    __arm_cp.161_0                           0x07fc286c   Number         4  lto-llvm-8ef5f6.o(.text.app_bass_process_handler)
    app_bass_timer_handler                   0x07fc2871   Thumb Code    32  lto-llvm-8ef5f6.o(.text.app_bass_timer_handler)
    [Anonymous Symbol]                       0x07fc2870   Section        0  lto-llvm-8ef5f6.o(.text.app_bass_timer_handler)
    __arm_cp.165_1                           0x07fc2890   Number         4  lto-llvm-8ef5f6.o(.text.app_bass_timer_handler)
    __arm_cp.165_2                           0x07fc2894   Number         4  lto-llvm-8ef5f6.o(.text.app_bass_timer_handler)
    app_batt_lvl                             0x07fc2899   Thumb Code   152  lto-llvm-8ef5f6.o(.text.app_batt_lvl)
    [Anonymous Symbol]                       0x07fc2898   Section        0  lto-llvm-8ef5f6.o(.text.app_batt_lvl)
    __arm_cp.160_1                           0x07fc2930   Number         4  lto-llvm-8ef5f6.o(.text.app_batt_lvl)
    __arm_cp.160_2                           0x07fc2934   Number         4  lto-llvm-8ef5f6.o(.text.app_batt_lvl)
    __arm_cp.160_3                           0x07fc2938   Number         4  lto-llvm-8ef5f6.o(.text.app_batt_lvl)
    app_custs1_create_db                     0x07fc293d   Thumb Code    52  lto-llvm-8ef5f6.o(.text.app_custs1_create_db)
    [Anonymous Symbol]                       0x07fc293c   Section        0  lto-llvm-8ef5f6.o(.text.app_custs1_create_db)
    app_custs1_process_handler               0x07fc2971   Thumb Code     4  lto-llvm-8ef5f6.o(.text.app_custs1_process_handler)
    [Anonymous Symbol]                       0x07fc2970   Section        0  lto-llvm-8ef5f6.o(.text.app_custs1_process_handler)
    app_db_init_next                         0x07fc2975   Thumb Code   128  lto-llvm-8ef5f6.o(.text.app_db_init_next)
    [Anonymous Symbol]                       0x07fc2974   Section        0  lto-llvm-8ef5f6.o(.text.app_db_init_next)
    __arm_cp.131_0                           0x07fc29b4   Number         4  lto-llvm-8ef5f6.o(.text.app_db_init_next)
    __arm_cp.131_1                           0x07fc29b8   Number         4  lto-llvm-8ef5f6.o(.text.app_db_init_next)
    cust_prf_funcs                           0x07fc29bc   Number         0  lto-llvm-8ef5f6.o(.text.app_db_init_next)
    app_diss_create_db                       0x07fc29f5   Thumb Code    52  lto-llvm-8ef5f6.o(.text.app_diss_create_db)
    [Anonymous Symbol]                       0x07fc29f4   Section        0  lto-llvm-8ef5f6.o(.text.app_diss_create_db)
    __arm_cp.168_0                           0x07fc2a28   Number         4  lto-llvm-8ef5f6.o(.text.app_diss_create_db)
    app_diss_process_handler                 0x07fc2a2d   Thumb Code    28  lto-llvm-8ef5f6.o(.text.app_diss_process_handler)
    [Anonymous Symbol]                       0x07fc2a2c   Section        0  lto-llvm-8ef5f6.o(.text.app_diss_process_handler)
    __arm_cp.169_0                           0x07fc2a48   Number         4  lto-llvm-8ef5f6.o(.text.app_diss_process_handler)
    app_easy_gap_disconnect                  0x07fc2a4d   Thumb Code    48  lto-llvm-8ef5f6.o(.text.app_easy_gap_disconnect)
    [Anonymous Symbol]                       0x07fc2a4c   Section        0  lto-llvm-8ef5f6.o(.text.app_easy_gap_disconnect)
    __arm_cp.132_0                           0x07fc2a7c   Number         4  lto-llvm-8ef5f6.o(.text.app_easy_gap_disconnect)
    __arm_cp.132_1                           0x07fc2a80   Number         4  lto-llvm-8ef5f6.o(.text.app_easy_gap_disconnect)
    app_easy_security_tk_exch                0x07fc2a85   Thumb Code    76  lto-llvm-8ef5f6.o(.text.app_easy_security_tk_exch)
    [Anonymous Symbol]                       0x07fc2a84   Section        0  lto-llvm-8ef5f6.o(.text.app_easy_security_tk_exch)
    __arm_cp.188_0                           0x07fc2ad0   Number         4  lto-llvm-8ef5f6.o(.text.app_easy_security_tk_exch)
    __arm_cp.188_1                           0x07fc2ad4   Number         4  lto-llvm-8ef5f6.o(.text.app_easy_security_tk_exch)
    app_easy_timer                           0x07fc2ad9   Thumb Code    84  lto-llvm-8ef5f6.o(.text.app_easy_timer)
    [Anonymous Symbol]                       0x07fc2ad8   Section        0  lto-llvm-8ef5f6.o(.text.app_easy_timer)
    __arm_cp.194_0                           0x07fc2b2c   Number         4  lto-llvm-8ef5f6.o(.text.app_easy_timer)
    app_easy_timer_cancel                    0x07fc2b31   Thumb Code    68  lto-llvm-8ef5f6.o(.text.app_easy_timer_cancel)
    [Anonymous Symbol]                       0x07fc2b30   Section        0  lto-llvm-8ef5f6.o(.text.app_easy_timer_cancel)
    __arm_cp.195_0                           0x07fc2b74   Number         4  lto-llvm-8ef5f6.o(.text.app_easy_timer_cancel)
    __arm_cp.195_1                           0x07fc2b78   Number         4  lto-llvm-8ef5f6.o(.text.app_easy_timer_cancel)
    __arm_cp.195_2                           0x07fc2b7c   Number         4  lto-llvm-8ef5f6.o(.text.app_easy_timer_cancel)
    app_entry_point_handler                  0x07fc2b81   Thumb Code    68  lto-llvm-8ef5f6.o(.text.app_entry_point_handler)
    [Anonymous Symbol]                       0x07fc2b80   Section        0  lto-llvm-8ef5f6.o(.text.app_entry_point_handler)
    __arm_cp.185_0                           0x07fc2bc4   Number         4  lto-llvm-8ef5f6.o(.text.app_entry_point_handler)
    app_erase_flash_sectors                  0x07fc2bc9   Thumb Code   132  lto-llvm-8ef5f6.o(.text.app_erase_flash_sectors)
    [Anonymous Symbol]                       0x07fc2bc8   Section        0  lto-llvm-8ef5f6.o(.text.app_erase_flash_sectors)
    __arm_cp.177_1                           0x07fc2c4c   Number         4  lto-llvm-8ef5f6.o(.text.app_erase_flash_sectors)
    __arm_cp.177_2                           0x07fc2c50   Number         4  lto-llvm-8ef5f6.o(.text.app_erase_flash_sectors)
    __arm_cp.177_3                           0x07fc2c54   Number         4  lto-llvm-8ef5f6.o(.text.app_erase_flash_sectors)
    __arm_cp.177_4                           0x07fc2c58   Number         4  lto-llvm-8ef5f6.o(.text.app_erase_flash_sectors)
    app_fill_random_byte_array               0x07fc2c5d   Thumb Code   180  lto-llvm-8ef5f6.o(.text.app_fill_random_byte_array)
    [Anonymous Symbol]                       0x07fc2c5c   Section        0  lto-llvm-8ef5f6.o(.text.app_fill_random_byte_array)
    __arm_cp.198_0                           0x07fc2d10   Number         4  lto-llvm-8ef5f6.o(.text.app_fill_random_byte_array)
    __arm_cp.198_1                           0x07fc2d14   Number         4  lto-llvm-8ef5f6.o(.text.app_fill_random_byte_array)
    app_flash_write_data                     0x07fc2d19   Thumb Code   220  lto-llvm-8ef5f6.o(.text.app_flash_write_data)
    [Anonymous Symbol]                       0x07fc2d18   Section        0  lto-llvm-8ef5f6.o(.text.app_flash_write_data)
    __arm_cp.176_0                           0x07fc2df4   Number         4  lto-llvm-8ef5f6.o(.text.app_flash_write_data)
    __arm_cp.176_1                           0x07fc2df8   Number         4  lto-llvm-8ef5f6.o(.text.app_flash_write_data)
    app_gap_process_handler                  0x07fc2dfd   Thumb Code    28  lto-llvm-8ef5f6.o(.text.app_gap_process_handler)
    [Anonymous Symbol]                       0x07fc2dfc   Section        0  lto-llvm-8ef5f6.o(.text.app_gap_process_handler)
    __arm_cp.135_0                           0x07fc2e18   Number         4  lto-llvm-8ef5f6.o(.text.app_gap_process_handler)
    app_msg_utils_api_process_handler        0x07fc2e1d   Thumb Code    48  lto-llvm-8ef5f6.o(.text.app_msg_utils_api_process_handler)
    [Anonymous Symbol]                       0x07fc2e1c   Section        0  lto-llvm-8ef5f6.o(.text.app_msg_utils_api_process_handler)
    __arm_cp.187_0                           0x07fc2e4c   Number         4  lto-llvm-8ef5f6.o(.text.app_msg_utils_api_process_handler)
    __arm_cp.187_1                           0x07fc2e50   Number         4  lto-llvm-8ef5f6.o(.text.app_msg_utils_api_process_handler)
    app_read_ext_mem                         0x07fc2e55   Thumb Code    28  lto-llvm-8ef5f6.o(.text.app_read_ext_mem)
    [Anonymous Symbol]                       0x07fc2e54   Section        0  lto-llvm-8ef5f6.o(.text.app_read_ext_mem)
    app_sec_process_handler                  0x07fc2e71   Thumb Code    28  lto-llvm-8ef5f6.o(.text.app_sec_process_handler)
    [Anonymous Symbol]                       0x07fc2e70   Section        0  lto-llvm-8ef5f6.o(.text.app_sec_process_handler)
    __arm_cp.150_0                           0x07fc2e8c   Number         4  lto-llvm-8ef5f6.o(.text.app_sec_process_handler)
    app_spi_flash_init                       0x07fc2e91   Thumb Code    14  lto-llvm-8ef5f6.o(.text.app_spi_flash_init)
    [Anonymous Symbol]                       0x07fc2e90   Section        0  lto-llvm-8ef5f6.o(.text.app_spi_flash_init)
    app_std_process_event                    0x07fc2ea1   Thumb Code   100  lto-llvm-8ef5f6.o(.text.app_std_process_event)
    [Anonymous Symbol]                       0x07fc2ea0   Section        0  lto-llvm-8ef5f6.o(.text.app_std_process_event)
    __arm_cp.186_0                           0x07fc2f04   Number         4  lto-llvm-8ef5f6.o(.text.app_std_process_event)
    __arm_cp.186_1                           0x07fc2f08   Number         4  lto-llvm-8ef5f6.o(.text.app_std_process_event)
    __arm_cp.186_2                           0x07fc2f0c   Number         4  lto-llvm-8ef5f6.o(.text.app_std_process_event)
    app_suotar_create_db                     0x07fc2f11   Thumb Code    48  lto-llvm-8ef5f6.o(.text.app_suotar_create_db)
    [Anonymous Symbol]                       0x07fc2f10   Section        0  lto-llvm-8ef5f6.o(.text.app_suotar_create_db)
    __arm_cp.171_0                           0x07fc2f40   Number         4  lto-llvm-8ef5f6.o(.text.app_suotar_create_db)
    app_suotar_process_handler               0x07fc2f45   Thumb Code    28  lto-llvm-8ef5f6.o(.text.app_suotar_process_handler)
    [Anonymous Symbol]                       0x07fc2f44   Section        0  lto-llvm-8ef5f6.o(.text.app_suotar_process_handler)
    __arm_cp.180_0                           0x07fc2f60   Number         4  lto-llvm-8ef5f6.o(.text.app_suotar_process_handler)
    app_suotar_spi_config                    0x07fc2f65   Thumb Code   120  lto-llvm-8ef5f6.o(.text.app_suotar_spi_config)
    [Anonymous Symbol]                       0x07fc2f64   Section        0  lto-llvm-8ef5f6.o(.text.app_suotar_spi_config)
    __arm_cp.174_0                           0x07fc2fdc   Number         4  lto-llvm-8ef5f6.o(.text.app_suotar_spi_config)
    __arm_cp.174_1                           0x07fc2fe0   Number         4  lto-llvm-8ef5f6.o(.text.app_suotar_spi_config)
    app_suotar_stop                          0x07fc2fe5   Thumb Code    72  lto-llvm-8ef5f6.o(.text.app_suotar_stop)
    [Anonymous Symbol]                       0x07fc2fe4   Section        0  lto-llvm-8ef5f6.o(.text.app_suotar_stop)
    __arm_cp.173_0                           0x07fc302c   Number         4  lto-llvm-8ef5f6.o(.text.app_suotar_stop)
    __arm_cp.173_1                           0x07fc3030   Number         4  lto-llvm-8ef5f6.o(.text.app_suotar_stop)
    __arm_cp.173_2                           0x07fc3034   Number         4  lto-llvm-8ef5f6.o(.text.app_suotar_stop)
    __arm_cp.173_3                           0x07fc3038   Number         4  lto-llvm-8ef5f6.o(.text.app_suotar_stop)
    app_timer_api_process_handler            0x07fc303d   Thumb Code   276  lto-llvm-8ef5f6.o(.text.app_timer_api_process_handler)
    [Anonymous Symbol]                       0x07fc303c   Section        0  lto-llvm-8ef5f6.o(.text.app_timer_api_process_handler)
    __arm_cp.190_0                           0x07fc3150   Number         4  lto-llvm-8ef5f6.o(.text.app_timer_api_process_handler)
    __arm_cp.190_1                           0x07fc3154   Number         4  lto-llvm-8ef5f6.o(.text.app_timer_api_process_handler)
    __arm_cp.190_2                           0x07fc3158   Number         4  lto-llvm-8ef5f6.o(.text.app_timer_api_process_handler)
    __arm_cp.190_3                           0x07fc315c   Number         4  lto-llvm-8ef5f6.o(.text.app_timer_api_process_handler)
    __arm_cp.190_4                           0x07fc3160   Number         4  lto-llvm-8ef5f6.o(.text.app_timer_api_process_handler)
    __arm_cp.190_5                           0x07fc3164   Number         4  lto-llvm-8ef5f6.o(.text.app_timer_api_process_handler)
    __arm_cp.190_6                           0x07fc3168   Number         4  lto-llvm-8ef5f6.o(.text.app_timer_api_process_handler)
    __arm_cp.190_7                           0x07fc316c   Number         4  lto-llvm-8ef5f6.o(.text.app_timer_api_process_handler)
    __arm_cp.190_8                           0x07fc3170   Number         4  lto-llvm-8ef5f6.o(.text.app_timer_api_process_handler)
    __arm_cp.190_9                           0x07fc3174   Number         4  lto-llvm-8ef5f6.o(.text.app_timer_api_process_handler)
    app_timer_set                            0x07fc3179   Thumb Code    14  lto-llvm-8ef5f6.o(.text.app_timer_set)
    [Anonymous Symbol]                       0x07fc3178   Section        0  lto-llvm-8ef5f6.o(.text.app_timer_set)
    arch_itoa                                0x07fc3187   Thumb Code   152  lto-llvm-8ef5f6.o(.text.arch_itoa)
    [Anonymous Symbol]                       0x07fc3186   Section        0  lto-llvm-8ef5f6.o(.text.arch_itoa)
    arch_printf                              0x07fc3221   Thumb Code   316  lto-llvm-8ef5f6.o(.text.arch_printf)
    [Anonymous Symbol]                       0x07fc3220   Section        0  lto-llvm-8ef5f6.o(.text.arch_printf)
    __arm_cp.4_2                             0x07fc3388   Number         4  lto-llvm-8ef5f6.o(.text.arch_printf)
    arch_printf_flush                        0x07fc338d   Thumb Code    92  lto-llvm-8ef5f6.o(.text.arch_printf_flush)
    [Anonymous Symbol]                       0x07fc338c   Section        0  lto-llvm-8ef5f6.o(.text.arch_printf_flush)
    __arm_cp.3_0                             0x07fc33e8   Number         4  lto-llvm-8ef5f6.o(.text.arch_printf_flush)
    __arm_cp.3_1                             0x07fc33ec   Number         4  lto-llvm-8ef5f6.o(.text.arch_printf_flush)
    arch_strlen                              0x07fc33f1   Thumb Code    14  lto-llvm-8ef5f6.o(.text.arch_strlen)
    [Anonymous Symbol]                       0x07fc33f0   Section        0  lto-llvm-8ef5f6.o(.text.arch_strlen)
    ba431_get_rand_func                      0x07fc33ff   Thumb Code    24  lto-llvm-8ef5f6.o(.text.ba431_get_rand_func)
    [Anonymous Symbol]                       0x07fc33fe   Section        0  lto-llvm-8ef5f6.o(.text.ba431_get_rand_func)
    bass_batt_level_ntf_cfg_ind_handler      0x07fc3417   Thumb Code     4  lto-llvm-8ef5f6.o(.text.bass_batt_level_ntf_cfg_ind_handler)
    [Anonymous Symbol]                       0x07fc3416   Section        0  lto-llvm-8ef5f6.o(.text.bass_batt_level_ntf_cfg_ind_handler)
    bass_batt_level_upd_req_handler          0x07fc341d   Thumb Code   104  lto-llvm-8ef5f6.o(.text.bass_batt_level_upd_req_handler)
    [Anonymous Symbol]                       0x07fc341c   Section        0  lto-llvm-8ef5f6.o(.text.bass_batt_level_upd_req_handler)
    __arm_cp.126_0                           0x07fc3484   Number         4  lto-llvm-8ef5f6.o(.text.bass_batt_level_upd_req_handler)
    bass_batt_level_upd_rsp_handler          0x07fc3489   Thumb Code     4  lto-llvm-8ef5f6.o(.text.bass_batt_level_upd_rsp_handler)
    [Anonymous Symbol]                       0x07fc3488   Section        0  lto-llvm-8ef5f6.o(.text.bass_batt_level_upd_rsp_handler)
    bass_cleanup                             0x07fc348d   Thumb Code    28  lto-llvm-8ef5f6.o(.text.bass_cleanup)
    [Anonymous Symbol]                       0x07fc348c   Section        0  lto-llvm-8ef5f6.o(.text.bass_cleanup)
    bass_create                              0x07fc34a9   Thumb Code    28  lto-llvm-8ef5f6.o(.text.bass_create)
    [Anonymous Symbol]                       0x07fc34a8   Section        0  lto-llvm-8ef5f6.o(.text.bass_create)
    __arm_cp.120_0                           0x07fc34c4   Number         4  lto-llvm-8ef5f6.o(.text.bass_create)
    __arm_cp.120_1                           0x07fc34c8   Number         4  lto-llvm-8ef5f6.o(.text.bass_create)
    bass_destroy                             0x07fc34cd   Thumb Code    28  lto-llvm-8ef5f6.o(.text.bass_destroy)
    [Anonymous Symbol]                       0x07fc34cc   Section        0  lto-llvm-8ef5f6.o(.text.bass_destroy)
    bass_enable_req_handler                  0x07fc34e9   Thumb Code   120  lto-llvm-8ef5f6.o(.text.bass_enable_req_handler)
    [Anonymous Symbol]                       0x07fc34e8   Section        0  lto-llvm-8ef5f6.o(.text.bass_enable_req_handler)
    __arm_cp.125_0                           0x07fc3560   Number         4  lto-llvm-8ef5f6.o(.text.bass_enable_req_handler)
    bass_enable_rsp_handler                  0x07fc3565   Thumb Code     4  lto-llvm-8ef5f6.o(.text.bass_enable_rsp_handler)
    [Anonymous Symbol]                       0x07fc3564   Section        0  lto-llvm-8ef5f6.o(.text.bass_enable_rsp_handler)
    bass_exe_operation                       0x07fc3569   Thumb Code   268  lto-llvm-8ef5f6.o(.text.bass_exe_operation)
    [Anonymous Symbol]                       0x07fc3568   Section        0  lto-llvm-8ef5f6.o(.text.bass_exe_operation)
    __arm_cp.123_0                           0x07fc3674   Number         4  lto-llvm-8ef5f6.o(.text.bass_exe_operation)
    __arm_cp.123_1                           0x07fc3678   Number         4  lto-llvm-8ef5f6.o(.text.bass_exe_operation)
    __arm_cp.123_3                           0x07fc367c   Number         4  lto-llvm-8ef5f6.o(.text.bass_exe_operation)
    __arm_cp.123_4                           0x07fc3680   Number         4  lto-llvm-8ef5f6.o(.text.bass_exe_operation)
    bass_get_att_idx                         0x07fc3685   Thumb Code   102  lto-llvm-8ef5f6.o(.text.bass_get_att_idx)
    [Anonymous Symbol]                       0x07fc3684   Section        0  lto-llvm-8ef5f6.o(.text.bass_get_att_idx)
    bass_init                                0x07fc36ed   Thumb Code   348  lto-llvm-8ef5f6.o(.text.bass_init)
    [Anonymous Symbol]                       0x07fc36ec   Section        0  lto-llvm-8ef5f6.o(.text.bass_init)
    __arm_cp.118_0                           0x07fc3848   Number         4  lto-llvm-8ef5f6.o(.text.bass_init)
    __arm_cp.118_1                           0x07fc384c   Number         4  lto-llvm-8ef5f6.o(.text.bass_init)
    __arm_cp.118_2                           0x07fc3850   Number         4  lto-llvm-8ef5f6.o(.text.bass_init)
    __arm_cp.118_3                           0x07fc3854   Number         4  lto-llvm-8ef5f6.o(.text.bass_init)
    bass_notify_batt_lvl                     0x07fc3859   Thumb Code   104  lto-llvm-8ef5f6.o(.text.bass_notify_batt_lvl)
    [Anonymous Symbol]                       0x07fc3858   Section        0  lto-llvm-8ef5f6.o(.text.bass_notify_batt_lvl)
    __arm_cp.124_0                           0x07fc38c0   Number         4  lto-llvm-8ef5f6.o(.text.bass_notify_batt_lvl)
    battery_get_lvl                          0x07fc38c5   Thumb Code   212  lto-llvm-8ef5f6.o(.text.battery_get_lvl)
    [Anonymous Symbol]                       0x07fc38c4   Section        0  lto-llvm-8ef5f6.o(.text.battery_get_lvl)
    __arm_cp.35_0                            0x07fc3998   Number         4  lto-llvm-8ef5f6.o(.text.battery_get_lvl)
    __arm_cp.35_1                            0x07fc399c   Number         4  lto-llvm-8ef5f6.o(.text.battery_get_lvl)
    __arm_cp.35_2                            0x07fc39a0   Number         4  lto-llvm-8ef5f6.o(.text.battery_get_lvl)
    __arm_cp.35_3                            0x07fc39a4   Number         4  lto-llvm-8ef5f6.o(.text.battery_get_lvl)
    __arm_cp.35_4                            0x07fc39a8   Number         4  lto-llvm-8ef5f6.o(.text.battery_get_lvl)
    __arm_cp.35_5                            0x07fc39ac   Number         4  lto-llvm-8ef5f6.o(.text.battery_get_lvl)
    bls_att_pushNotifyData                   0x07fc39b1   Thumb Code    48  lto-llvm-8ef5f6.o(.text.bls_att_pushNotifyData)
    [Anonymous Symbol]                       0x07fc39b0   Section        0  lto-llvm-8ef5f6.o(.text.bls_att_pushNotifyData)
    __arm_cp.215_0                           0x07fc39e0   Number         4  lto-llvm-8ef5f6.o(.text.bls_att_pushNotifyData)
    create_timer                             0x07fc39e5   Thumb Code   108  lto-llvm-8ef5f6.o(.text.create_timer)
    [Anonymous Symbol]                       0x07fc39e4   Section        0  lto-llvm-8ef5f6.o(.text.create_timer)
    __arm_cp.193_0                           0x07fc3a50   Number         4  lto-llvm-8ef5f6.o(.text.create_timer)
    __arm_cp.193_1                           0x07fc3a54   Number         4  lto-llvm-8ef5f6.o(.text.create_timer)
    __arm_cp.193_2                           0x07fc3a58   Number         4  lto-llvm-8ef5f6.o(.text.create_timer)
    __arm_cp.193_3                           0x07fc3a5c   Number         4  lto-llvm-8ef5f6.o(.text.create_timer)
    __arm_cp.193_4                           0x07fc3a60   Number         4  lto-llvm-8ef5f6.o(.text.create_timer)
    crypto_init_func                         0x07fc3a65   Thumb Code     2  lto-llvm-8ef5f6.o(.text.crypto_init_func)
    [Anonymous Symbol]                       0x07fc3a64   Section        0  lto-llvm-8ef5f6.o(.text.crypto_init_func)
    custs1_att_get_value                     0x07fc3a69   Thumb Code    80  lto-llvm-8ef5f6.o(.text.custs1_att_get_value)
    [Anonymous Symbol]                       0x07fc3a68   Section        0  lto-llvm-8ef5f6.o(.text.custs1_att_get_value)
    custs1_att_info_rsp_handler              0x07fc3ab9   Thumb Code    60  lto-llvm-8ef5f6.o(.text.custs1_att_info_rsp_handler)
    [Anonymous Symbol]                       0x07fc3ab8   Section        0  lto-llvm-8ef5f6.o(.text.custs1_att_info_rsp_handler)
    __arm_cp.96_0                            0x07fc3af4   Number         4  lto-llvm-8ef5f6.o(.text.custs1_att_info_rsp_handler)
    custs1_att_set_value                     0x07fc3af9   Thumb Code    98  lto-llvm-8ef5f6.o(.text.custs1_att_set_value)
    [Anonymous Symbol]                       0x07fc3af8   Section        0  lto-llvm-8ef5f6.o(.text.custs1_att_set_value)
    custs1_cleanup                           0x07fc3b5d   Thumb Code    84  lto-llvm-8ef5f6.o(.text.custs1_cleanup)
    [Anonymous Symbol]                       0x07fc3b5c   Section        0  lto-llvm-8ef5f6.o(.text.custs1_cleanup)
    __arm_cp.88_3                            0x07fc3bb0   Number         4  lto-llvm-8ef5f6.o(.text.custs1_cleanup)
    custs1_create                            0x07fc3bb5   Thumb Code    72  lto-llvm-8ef5f6.o(.text.custs1_create)
    [Anonymous Symbol]                       0x07fc3bb4   Section        0  lto-llvm-8ef5f6.o(.text.custs1_create)
    __arm_cp.87_2                            0x07fc3bfc   Number         4  lto-llvm-8ef5f6.o(.text.custs1_create)
    __arm_cp.87_3                            0x07fc3c00   Number         4  lto-llvm-8ef5f6.o(.text.custs1_create)
    __arm_cp.87_4                            0x07fc3c04   Number         4  lto-llvm-8ef5f6.o(.text.custs1_create)
    custs1_destroy                           0x07fc3c09   Thumb Code    40  lto-llvm-8ef5f6.o(.text.custs1_destroy)
    [Anonymous Symbol]                       0x07fc3c08   Section        0  lto-llvm-8ef5f6.o(.text.custs1_destroy)
    custs1_exe_operation                     0x07fc3c31   Thumb Code   244  lto-llvm-8ef5f6.o(.text.custs1_exe_operation)
    [Anonymous Symbol]                       0x07fc3c30   Section        0  lto-llvm-8ef5f6.o(.text.custs1_exe_operation)
    __arm_cp.98_0                            0x07fc3d24   Number         4  lto-llvm-8ef5f6.o(.text.custs1_exe_operation)
    __arm_cp.98_1                            0x07fc3d28   Number         4  lto-llvm-8ef5f6.o(.text.custs1_exe_operation)
    __arm_cp.98_2                            0x07fc3d2c   Number         4  lto-llvm-8ef5f6.o(.text.custs1_exe_operation)
    __arm_cp.98_3                            0x07fc3d30   Number         4  lto-llvm-8ef5f6.o(.text.custs1_exe_operation)
    custs1_get_att_handle                    0x07fc3d35   Thumb Code    28  lto-llvm-8ef5f6.o(.text.custs1_get_att_handle)
    [Anonymous Symbol]                       0x07fc3d34   Section        0  lto-llvm-8ef5f6.o(.text.custs1_get_att_handle)
    custs1_get_att_idx                       0x07fc3d51   Thumb Code    38  lto-llvm-8ef5f6.o(.text.custs1_get_att_idx)
    [Anonymous Symbol]                       0x07fc3d50   Section        0  lto-llvm-8ef5f6.o(.text.custs1_get_att_idx)
    custs1_init                              0x07fc3d79   Thumb Code   640  lto-llvm-8ef5f6.o(.text.custs1_init)
    [Anonymous Symbol]                       0x07fc3d78   Section        0  lto-llvm-8ef5f6.o(.text.custs1_init)
    __arm_cp.85_0                            0x07fc3ff8   Number         4  lto-llvm-8ef5f6.o(.text.custs1_init)
    __arm_cp.85_1                            0x07fc3ffc   Number         4  lto-llvm-8ef5f6.o(.text.custs1_init)
    __arm_cp.85_2                            0x07fc4000   Number         4  lto-llvm-8ef5f6.o(.text.custs1_init)
    __arm_cp.85_3                            0x07fc4004   Number         4  lto-llvm-8ef5f6.o(.text.custs1_init)
    __arm_cp.85_4                            0x07fc4008   Number         4  lto-llvm-8ef5f6.o(.text.custs1_init)
    __arm_cp.85_5                            0x07fc400c   Number         4  lto-llvm-8ef5f6.o(.text.custs1_init)
    custs1_set_ccc_value                     0x07fc4011   Thumb Code   112  lto-llvm-8ef5f6.o(.text.custs1_set_ccc_value)
    [Anonymous Symbol]                       0x07fc4010   Section        0  lto-llvm-8ef5f6.o(.text.custs1_set_ccc_value)
    __arm_cp.100_0                           0x07fc4080   Number         4  lto-llvm-8ef5f6.o(.text.custs1_set_ccc_value)
    __arm_cp.100_1                           0x07fc4084   Number         4  lto-llvm-8ef5f6.o(.text.custs1_set_ccc_value)
    custs1_val_ind_req_handler               0x07fc4089   Thumb Code   120  lto-llvm-8ef5f6.o(.text.custs1_val_ind_req_handler)
    [Anonymous Symbol]                       0x07fc4088   Section        0  lto-llvm-8ef5f6.o(.text.custs1_val_ind_req_handler)
    custs1_val_ntf_req_handler               0x07fc4101   Thumb Code   120  lto-llvm-8ef5f6.o(.text.custs1_val_ntf_req_handler)
    [Anonymous Symbol]                       0x07fc4100   Section        0  lto-llvm-8ef5f6.o(.text.custs1_val_ntf_req_handler)
    __arm_cp.93_0                            0x07fc4178   Number         4  lto-llvm-8ef5f6.o(.text.custs1_val_ntf_req_handler)
    __arm_cp.93_1                            0x07fc417c   Number         4  lto-llvm-8ef5f6.o(.text.custs1_val_ntf_req_handler)
    custs1_val_set_req_handler               0x07fc4181   Thumb Code    34  lto-llvm-8ef5f6.o(.text.custs1_val_set_req_handler)
    [Anonymous Symbol]                       0x07fc4180   Section        0  lto-llvm-8ef5f6.o(.text.custs1_val_set_req_handler)
    custs1_value_req_rsp_handler             0x07fc41a5   Thumb Code   116  lto-llvm-8ef5f6.o(.text.custs1_value_req_rsp_handler)
    [Anonymous Symbol]                       0x07fc41a4   Section        0  lto-llvm-8ef5f6.o(.text.custs1_value_req_rsp_handler)
    __arm_cp.97_0                            0x07fc4218   Number         4  lto-llvm-8ef5f6.o(.text.custs1_value_req_rsp_handler)
    dbg_init_func_empty                      0x07fc421d   Thumb Code     2  lto-llvm-8ef5f6.o(.text.dbg_init_func_empty)
    [Anonymous Symbol]                       0x07fc421c   Section        0  lto-llvm-8ef5f6.o(.text.dbg_init_func_empty)
    dbg_platform_reset_complete_func_empty   0x07fc421f   Thumb Code     2  lto-llvm-8ef5f6.o(.text.dbg_platform_reset_complete_func_empty)
    [Anonymous Symbol]                       0x07fc421e   Section        0  lto-llvm-8ef5f6.o(.text.dbg_platform_reset_complete_func_empty)
    dia_rand_func                            0x07fc4221   Thumb Code     8  lto-llvm-8ef5f6.o(.text.dia_rand_func)
    [Anonymous Symbol]                       0x07fc4220   Section        0  lto-llvm-8ef5f6.o(.text.dia_rand_func)
    dia_srand_func                           0x07fc4229   Thumb Code     8  lto-llvm-8ef5f6.o(.text.dia_srand_func)
    [Anonymous Symbol]                       0x07fc4228   Section        0  lto-llvm-8ef5f6.o(.text.dia_srand_func)
    display                                  0x07fc4231   Thumb Code   456  lto-llvm-8ef5f6.o(.text.display)
    [Anonymous Symbol]                       0x07fc4230   Section        0  lto-llvm-8ef5f6.o(.text.display)
    __arm_cp.214_0                           0x07fc43f8   Number         4  lto-llvm-8ef5f6.o(.text.display)
    __arm_cp.214_1                           0x07fc43fc   Number         4  lto-llvm-8ef5f6.o(.text.display)
    __arm_cp.214_2                           0x07fc4400   Number         4  lto-llvm-8ef5f6.o(.text.display)
    __arm_cp.214_3                           0x07fc4404   Number         4  lto-llvm-8ef5f6.o(.text.display)
    __arm_cp.214_4                           0x07fc4408   Number         4  lto-llvm-8ef5f6.o(.text.display)
    __arm_cp.214_5                           0x07fc440c   Number         4  lto-llvm-8ef5f6.o(.text.display)
    __arm_cp.214_6                           0x07fc4410   Number         4  lto-llvm-8ef5f6.o(.text.display)
    __arm_cp.214_7                           0x07fc4414   Number         4  lto-llvm-8ef5f6.o(.text.display)
    __arm_cp.214_8                           0x07fc4418   Number         4  lto-llvm-8ef5f6.o(.text.display)
    __arm_cp.214_9                           0x07fc441c   Number         4  lto-llvm-8ef5f6.o(.text.display)
    __arm_cp.214_10                          0x07fc4420   Number         4  lto-llvm-8ef5f6.o(.text.display)
    diss_cleanup                             0x07fc4425   Thumb Code     2  lto-llvm-8ef5f6.o(.text.diss_cleanup)
    [Anonymous Symbol]                       0x07fc4424   Section        0  lto-llvm-8ef5f6.o(.text.diss_cleanup)
    diss_create                              0x07fc4427   Thumb Code     2  lto-llvm-8ef5f6.o(.text.diss_create)
    [Anonymous Symbol]                       0x07fc4426   Section        0  lto-llvm-8ef5f6.o(.text.diss_create)
    diss_destroy                             0x07fc4429   Thumb Code    38  lto-llvm-8ef5f6.o(.text.diss_destroy)
    [Anonymous Symbol]                       0x07fc4428   Section        0  lto-llvm-8ef5f6.o(.text.diss_destroy)
    diss_init                                0x07fc4451   Thumb Code   204  lto-llvm-8ef5f6.o(.text.diss_init)
    [Anonymous Symbol]                       0x07fc4450   Section        0  lto-llvm-8ef5f6.o(.text.diss_init)
    __arm_cp.77_0                            0x07fc451c   Number         4  lto-llvm-8ef5f6.o(.text.diss_init)
    __arm_cp.77_1                            0x07fc4520   Number         4  lto-llvm-8ef5f6.o(.text.diss_init)
    __arm_cp.77_2                            0x07fc4524   Number         4  lto-llvm-8ef5f6.o(.text.diss_init)
    diss_set_value_req_handler               0x07fc4529   Thumb Code   188  lto-llvm-8ef5f6.o(.text.diss_set_value_req_handler)
    [Anonymous Symbol]                       0x07fc4528   Section        0  lto-llvm-8ef5f6.o(.text.diss_set_value_req_handler)
    __arm_cp.82_0                            0x07fc45e4   Number         4  lto-llvm-8ef5f6.o(.text.diss_set_value_req_handler)
    diss_value_cfm_handler                   0x07fc45e9   Thumb Code   128  lto-llvm-8ef5f6.o(.text.diss_value_cfm_handler)
    [Anonymous Symbol]                       0x07fc45e8   Section        0  lto-llvm-8ef5f6.o(.text.diss_value_cfm_handler)
    __arm_cp.84_0                            0x07fc4668   Number         4  lto-llvm-8ef5f6.o(.text.diss_value_cfm_handler)
    diss_value_req_ind_handler               0x07fc466d   Thumb Code   124  lto-llvm-8ef5f6.o(.text.diss_value_req_ind_handler)
    [Anonymous Symbol]                       0x07fc466c   Section        0  lto-llvm-8ef5f6.o(.text.diss_value_req_ind_handler)
    __arm_cp.170_1                           0x07fc46f4   Number         4  lto-llvm-8ef5f6.o(.text.diss_value_req_ind_handler)
    __arm_cp.170_2                           0x07fc46f8   Number         4  lto-llvm-8ef5f6.o(.text.diss_value_req_ind_handler)
    __arm_cp.170_3                           0x07fc46fc   Number         4  lto-llvm-8ef5f6.o(.text.diss_value_req_ind_handler)
    __arm_cp.170_7                           0x07fc4720   Number         4  lto-llvm-8ef5f6.o(.text.diss_value_req_ind_handler)
    __arm_cp.170_8                           0x07fc4724   Number         4  lto-llvm-8ef5f6.o(.text.diss_value_req_ind_handler)
    __arm_cp.170_9                           0x07fc4728   Number         4  lto-llvm-8ef5f6.o(.text.diss_value_req_ind_handler)
    diss_value_to_handle                     0x07fc472d   Thumb Code    46  lto-llvm-8ef5f6.o(.text.diss_value_to_handle)
    [Anonymous Symbol]                       0x07fc472c   Section        0  lto-llvm-8ef5f6.o(.text.diss_value_to_handle)
    do_display_update_with_analog_clock      0x07fc475d   Thumb Code   152  lto-llvm-8ef5f6.o(.text.do_display_update_with_analog_clock)
    [Anonymous Symbol]                       0x07fc475c   Section        0  lto-llvm-8ef5f6.o(.text.do_display_update_with_analog_clock)
    __arm_cp.211_1                           0x07fc47f4   Number         4  lto-llvm-8ef5f6.o(.text.do_display_update_with_analog_clock)
    __arm_cp.211_2                           0x07fc47f8   Number         4  lto-llvm-8ef5f6.o(.text.do_display_update_with_analog_clock)
    __arm_cp.211_3                           0x07fc47fc   Number         4  lto-llvm-8ef5f6.o(.text.do_display_update_with_analog_clock)
    __arm_cp.211_4                           0x07fc4800   Number         4  lto-llvm-8ef5f6.o(.text.do_display_update_with_analog_clock)
    do_min_work_with_analog_clock            0x07fc4805   Thumb Code   168  lto-llvm-8ef5f6.o(.text.do_min_work_with_analog_clock)
    [Anonymous Symbol]                       0x07fc4804   Section        0  lto-llvm-8ef5f6.o(.text.do_min_work_with_analog_clock)
    __arm_cp.213_0                           0x07fc48ac   Number         4  lto-llvm-8ef5f6.o(.text.do_min_work_with_analog_clock)
    __arm_cp.213_1                           0x07fc48b0   Number         4  lto-llvm-8ef5f6.o(.text.do_min_work_with_analog_clock)
    __arm_cp.213_4                           0x07fc48b4   Number         4  lto-llvm-8ef5f6.o(.text.do_min_work_with_analog_clock)
    __arm_cp.213_5                           0x07fc48b8   Number         4  lto-llvm-8ef5f6.o(.text.do_min_work_with_analog_clock)
    __arm_cp.213_6                           0x07fc48bc   Number         4  lto-llvm-8ef5f6.o(.text.do_min_work_with_analog_clock)
    __arm_cp.213_7                           0x07fc48c0   Number         4  lto-llvm-8ef5f6.o(.text.do_min_work_with_analog_clock)
    __arm_cp.213_8                           0x07fc48c4   Number         4  lto-llvm-8ef5f6.o(.text.do_min_work_with_analog_clock)
    __arm_cp.213_9                           0x07fc48c8   Number         4  lto-llvm-8ef5f6.o(.text.do_min_work_with_analog_clock)
    __arm_cp.213_10                          0x07fc48cc   Number         4  lto-llvm-8ef5f6.o(.text.do_min_work_with_analog_clock)
    __arm_cp.213_11                          0x07fc48d0   Number         4  lto-llvm-8ef5f6.o(.text.do_min_work_with_analog_clock)
    __arm_cp.213_12                          0x07fc48d4   Number         4  lto-llvm-8ef5f6.o(.text.do_min_work_with_analog_clock)
    gapc_bond_ind_handler                    0x07fc48d9   Thumb Code   272  lto-llvm-8ef5f6.o(.text.gapc_bond_ind_handler)
    [Anonymous Symbol]                       0x07fc48d8   Section        0  lto-llvm-8ef5f6.o(.text.gapc_bond_ind_handler)
    __arm_cp.152_0                           0x07fc49e8   Number         4  lto-llvm-8ef5f6.o(.text.gapc_bond_ind_handler)
    gapc_bond_req_ind_handler                0x07fc4a01   Thumb Code   328  lto-llvm-8ef5f6.o(.text.gapc_bond_req_ind_handler)
    [Anonymous Symbol]                       0x07fc4a00   Section        0  lto-llvm-8ef5f6.o(.text.gapc_bond_req_ind_handler)
    __arm_cp.151_0                           0x07fc4b48   Number         4  lto-llvm-8ef5f6.o(.text.gapc_bond_req_ind_handler)
    __arm_cp.151_1                           0x07fc4b4c   Number         4  lto-llvm-8ef5f6.o(.text.gapc_bond_req_ind_handler)
    __arm_cp.151_2                           0x07fc4b50   Number         4  lto-llvm-8ef5f6.o(.text.gapc_bond_req_ind_handler)
    __arm_cp.151_4                           0x07fc4b64   Number         4  lto-llvm-8ef5f6.o(.text.gapc_bond_req_ind_handler)
    __arm_cp.151_5                           0x07fc4b68   Number         4  lto-llvm-8ef5f6.o(.text.gapc_bond_req_ind_handler)
    __arm_cp.151_6                           0x07fc4b6c   Number         4  lto-llvm-8ef5f6.o(.text.gapc_bond_req_ind_handler)
    gapc_cmp_evt_handler                     0x07fc4b71   Thumb Code    36  lto-llvm-8ef5f6.o(.text.gapc_cmp_evt_handler)
    [Anonymous Symbol]                       0x07fc4b70   Section        0  lto-llvm-8ef5f6.o(.text.gapc_cmp_evt_handler)
    gapc_connection_req_ind_handler          0x07fc4b95   Thumb Code   272  lto-llvm-8ef5f6.o(.text.gapc_connection_req_ind_handler)
    [Anonymous Symbol]                       0x07fc4b94   Section        0  lto-llvm-8ef5f6.o(.text.gapc_connection_req_ind_handler)
    __arm_cp.139_0                           0x07fc4ca4   Number         4  lto-llvm-8ef5f6.o(.text.gapc_connection_req_ind_handler)
    __arm_cp.139_1                           0x07fc4ca8   Number         4  lto-llvm-8ef5f6.o(.text.gapc_connection_req_ind_handler)
    __arm_cp.139_2                           0x07fc4cac   Number         4  lto-llvm-8ef5f6.o(.text.gapc_connection_req_ind_handler)
    __arm_cp.139_3                           0x07fc4cb0   Number         4  lto-llvm-8ef5f6.o(.text.gapc_connection_req_ind_handler)
    __arm_cp.139_4                           0x07fc4cb4   Number         4  lto-llvm-8ef5f6.o(.text.gapc_connection_req_ind_handler)
    __arm_cp.139_5                           0x07fc4cb8   Number         4  lto-llvm-8ef5f6.o(.text.gapc_connection_req_ind_handler)
    __arm_cp.139_6                           0x07fc4cbc   Number         4  lto-llvm-8ef5f6.o(.text.gapc_connection_req_ind_handler)
    __arm_cp.139_8                           0x07fc4ccc   Number         4  lto-llvm-8ef5f6.o(.text.gapc_connection_req_ind_handler)
    __arm_cp.139_9                           0x07fc4cd0   Number         4  lto-llvm-8ef5f6.o(.text.gapc_connection_req_ind_handler)
    gapc_disconnect_ind_handler              0x07fc4cd5   Thumb Code    92  lto-llvm-8ef5f6.o(.text.gapc_disconnect_ind_handler)
    [Anonymous Symbol]                       0x07fc4cd4   Section        0  lto-llvm-8ef5f6.o(.text.gapc_disconnect_ind_handler)
    __arm_cp.140_0                           0x07fc4d30   Number         4  lto-llvm-8ef5f6.o(.text.gapc_disconnect_ind_handler)
    __arm_cp.140_1                           0x07fc4d34   Number         4  lto-llvm-8ef5f6.o(.text.gapc_disconnect_ind_handler)
    __arm_cp.140_2                           0x07fc4d38   Number         4  lto-llvm-8ef5f6.o(.text.gapc_disconnect_ind_handler)
    __arm_cp.140_4                           0x07fc4d3c   Number         4  lto-llvm-8ef5f6.o(.text.gapc_disconnect_ind_handler)
    gapc_encrypt_ind_handler                 0x07fc4d41   Thumb Code    20  lto-llvm-8ef5f6.o(.text.gapc_encrypt_ind_handler)
    [Anonymous Symbol]                       0x07fc4d40   Section        0  lto-llvm-8ef5f6.o(.text.gapc_encrypt_ind_handler)
    __arm_cp.154_0                           0x07fc4d54   Number         4  lto-llvm-8ef5f6.o(.text.gapc_encrypt_ind_handler)
    gapc_encrypt_req_ind_handler             0x07fc4d59   Thumb Code     4  lto-llvm-8ef5f6.o(.text.gapc_encrypt_req_ind_handler)
    [Anonymous Symbol]                       0x07fc4d58   Section        0  lto-llvm-8ef5f6.o(.text.gapc_encrypt_req_ind_handler)
    gapc_get_dev_info_req_ind_handler        0x07fc4d5d   Thumb Code   144  lto-llvm-8ef5f6.o(.text.gapc_get_dev_info_req_ind_handler)
    [Anonymous Symbol]                       0x07fc4d5c   Section        0  lto-llvm-8ef5f6.o(.text.gapc_get_dev_info_req_ind_handler)
    __arm_cp.141_0                           0x07fc4dec   Number         4  lto-llvm-8ef5f6.o(.text.gapc_get_dev_info_req_ind_handler)
    gapc_le_pkt_size_ind_handler             0x07fc4df1   Thumb Code     4  lto-llvm-8ef5f6.o(.text.gapc_le_pkt_size_ind_handler)
    [Anonymous Symbol]                       0x07fc4df0   Section        0  lto-llvm-8ef5f6.o(.text.gapc_le_pkt_size_ind_handler)
    gapc_param_update_req_ind_handler        0x07fc4df5   Thumb Code    32  lto-llvm-8ef5f6.o(.text.gapc_param_update_req_ind_handler)
    [Anonymous Symbol]                       0x07fc4df4   Section        0  lto-llvm-8ef5f6.o(.text.gapc_param_update_req_ind_handler)
    gapc_peer_features_ind_handler           0x07fc4e15   Thumb Code     4  lto-llvm-8ef5f6.o(.text.gapc_peer_features_ind_handler)
    [Anonymous Symbol]                       0x07fc4e14   Section        0  lto-llvm-8ef5f6.o(.text.gapc_peer_features_ind_handler)
    gapc_security_ind_handler                0x07fc4e19   Thumb Code     4  lto-llvm-8ef5f6.o(.text.gapc_security_ind_handler)
    [Anonymous Symbol]                       0x07fc4e18   Section        0  lto-llvm-8ef5f6.o(.text.gapc_security_ind_handler)
    gapc_set_dev_info_req_ind_handler        0x07fc4e1d   Thumb Code    88  lto-llvm-8ef5f6.o(.text.gapc_set_dev_info_req_ind_handler)
    [Anonymous Symbol]                       0x07fc4e1c   Section        0  lto-llvm-8ef5f6.o(.text.gapc_set_dev_info_req_ind_handler)
    __arm_cp.142_0                           0x07fc4e74   Number         4  lto-llvm-8ef5f6.o(.text.gapc_set_dev_info_req_ind_handler)
    __arm_cp.142_1                           0x07fc4e78   Number         4  lto-llvm-8ef5f6.o(.text.gapc_set_dev_info_req_ind_handler)
    gapm_addr_solved_ind_handler             0x07fc4e7d   Thumb Code     4  lto-llvm-8ef5f6.o(.text.gapm_addr_solved_ind_handler)
    [Anonymous Symbol]                       0x07fc4e7c   Section        0  lto-llvm-8ef5f6.o(.text.gapm_addr_solved_ind_handler)
    gapm_adv_report_ind_handler              0x07fc4e81   Thumb Code     4  lto-llvm-8ef5f6.o(.text.gapm_adv_report_ind_handler)
    [Anonymous Symbol]                       0x07fc4e80   Section        0  lto-llvm-8ef5f6.o(.text.gapm_adv_report_ind_handler)
    gapm_cmp_evt_handler                     0x07fc4e85   Thumb Code   224  lto-llvm-8ef5f6.o(.text.gapm_cmp_evt_handler)
    [Anonymous Symbol]                       0x07fc4e84   Section        0  lto-llvm-8ef5f6.o(.text.gapm_cmp_evt_handler)
    __arm_cp.137_0                           0x07fc4f64   Number         4  lto-llvm-8ef5f6.o(.text.gapm_cmp_evt_handler)
    __arm_cp.137_1                           0x07fc4f68   Number         4  lto-llvm-8ef5f6.o(.text.gapm_cmp_evt_handler)
    __arm_cp.137_2                           0x07fc4f6c   Number         4  lto-llvm-8ef5f6.o(.text.gapm_cmp_evt_handler)
    __arm_cp.137_3                           0x07fc4f70   Number         4  lto-llvm-8ef5f6.o(.text.gapm_cmp_evt_handler)
    __arm_cp.137_4                           0x07fc4f74   Number         4  lto-llvm-8ef5f6.o(.text.gapm_cmp_evt_handler)
    __arm_cp.137_5                           0x07fc4f78   Number         4  lto-llvm-8ef5f6.o(.text.gapm_cmp_evt_handler)
    __arm_cp.137_6                           0x07fc4f7c   Number         4  lto-llvm-8ef5f6.o(.text.gapm_cmp_evt_handler)
    gapm_device_ready_ind_handler            0x07fc4f81   Thumb Code    52  lto-llvm-8ef5f6.o(.text.gapm_device_ready_ind_handler)
    [Anonymous Symbol]                       0x07fc4f80   Section        0  lto-llvm-8ef5f6.o(.text.gapm_device_ready_ind_handler)
    __arm_cp.136_2                           0x07fc4fb4   Number         4  lto-llvm-8ef5f6.o(.text.gapm_device_ready_ind_handler)
    gapm_profile_added_ind_handler           0x07fc4fb9   Thumb Code   112  lto-llvm-8ef5f6.o(.text.gapm_profile_added_ind_handler)
    [Anonymous Symbol]                       0x07fc4fb8   Section        0  lto-llvm-8ef5f6.o(.text.gapm_profile_added_ind_handler)
    __arm_cp.143_1                           0x07fc5034   Number         4  lto-llvm-8ef5f6.o(.text.gapm_profile_added_ind_handler)
    __arm_cp.143_3                           0x07fc5060   Number         4  lto-llvm-8ef5f6.o(.text.gapm_profile_added_ind_handler)
    __arm_cp.143_4                           0x07fc5064   Number         4  lto-llvm-8ef5f6.o(.text.gapm_profile_added_ind_handler)
    __arm_cp.143_5                           0x07fc5068   Number         4  lto-llvm-8ef5f6.o(.text.gapm_profile_added_ind_handler)
    gapm_ral_addr_ind_handler                0x07fc5089   Thumb Code     4  lto-llvm-8ef5f6.o(.text.gapm_ral_addr_ind_handler)
    [Anonymous Symbol]                       0x07fc5088   Section        0  lto-llvm-8ef5f6.o(.text.gapm_ral_addr_ind_handler)
    gapm_ral_size_ind_handler                0x07fc508d   Thumb Code     4  lto-llvm-8ef5f6.o(.text.gapm_ral_size_ind_handler)
    [Anonymous Symbol]                       0x07fc508c   Section        0  lto-llvm-8ef5f6.o(.text.gapm_ral_size_ind_handler)
    gattc_att_info_req_ind_handler           0x07fc5091   Thumb Code    76  lto-llvm-8ef5f6.o(.text.gattc_att_info_req_ind_handler)
    [Anonymous Symbol]                       0x07fc5090   Section        0  lto-llvm-8ef5f6.o(.text.gattc_att_info_req_ind_handler)
    __arm_cp.91_0                            0x07fc50dc   Number         4  lto-llvm-8ef5f6.o(.text.gattc_att_info_req_ind_handler)
    __arm_cp.91_1                            0x07fc50e0   Number         4  lto-llvm-8ef5f6.o(.text.gattc_att_info_req_ind_handler)
    __arm_cp.91_2                            0x07fc50e4   Number         4  lto-llvm-8ef5f6.o(.text.gattc_att_info_req_ind_handler)
    gattc_att_info_req_ind_handler.107       0x07fc50e9   Thumb Code    80  lto-llvm-8ef5f6.o(.text.gattc_att_info_req_ind_handler.107)
    [Anonymous Symbol]                       0x07fc50e8   Section        0  lto-llvm-8ef5f6.o(.text.gattc_att_info_req_ind_handler.107)
    __arm_cp.127_0                           0x07fc5138   Number         4  lto-llvm-8ef5f6.o(.text.gattc_att_info_req_ind_handler.107)
    gattc_cmp_evt_handler                    0x07fc513d   Thumb Code    20  lto-llvm-8ef5f6.o(.text.gattc_cmp_evt_handler)
    [Anonymous Symbol]                       0x07fc513c   Section        0  lto-llvm-8ef5f6.o(.text.gattc_cmp_evt_handler)
    gattc_cmp_evt_handler.110                0x07fc5151   Thumb Code    16  lto-llvm-8ef5f6.o(.text.gattc_cmp_evt_handler.110)
    [Anonymous Symbol]                       0x07fc5150   Section        0  lto-llvm-8ef5f6.o(.text.gattc_cmp_evt_handler.110)
    gattc_read_req_ind_handler               0x07fc5161   Thumb Code   220  lto-llvm-8ef5f6.o(.text.gattc_read_req_ind_handler)
    [Anonymous Symbol]                       0x07fc5160   Section        0  lto-llvm-8ef5f6.o(.text.gattc_read_req_ind_handler)
    __arm_cp.83_2                            0x07fc523c   Number         4  lto-llvm-8ef5f6.o(.text.gattc_read_req_ind_handler)
    gattc_read_req_ind_handler.101           0x07fc5241   Thumb Code   168  lto-llvm-8ef5f6.o(.text.gattc_read_req_ind_handler.101)
    [Anonymous Symbol]                       0x07fc5240   Section        0  lto-llvm-8ef5f6.o(.text.gattc_read_req_ind_handler.101)
    gattc_read_req_ind_handler.109           0x07fc52e9   Thumb Code   208  lto-llvm-8ef5f6.o(.text.gattc_read_req_ind_handler.109)
    [Anonymous Symbol]                       0x07fc52e8   Section        0  lto-llvm-8ef5f6.o(.text.gattc_read_req_ind_handler.109)
    gattc_read_req_ind_handler.74            0x07fc53b9   Thumb Code   280  lto-llvm-8ef5f6.o(.text.gattc_read_req_ind_handler.74)
    [Anonymous Symbol]                       0x07fc53b8   Section        0  lto-llvm-8ef5f6.o(.text.gattc_read_req_ind_handler.74)
    __arm_cp.89_2                            0x07fc54d0   Number         4  lto-llvm-8ef5f6.o(.text.gattc_read_req_ind_handler.74)
    __arm_cp.89_5                            0x07fc54d4   Number         4  lto-llvm-8ef5f6.o(.text.gattc_read_req_ind_handler.74)
    __arm_cp.89_6                            0x07fc54d8   Number         4  lto-llvm-8ef5f6.o(.text.gattc_read_req_ind_handler.74)
    __arm_cp.89_7                            0x07fc54dc   Number         4  lto-llvm-8ef5f6.o(.text.gattc_read_req_ind_handler.74)
    gattc_svc_changed_cfg_ind_handler        0x07fc54e1   Thumb Code     4  lto-llvm-8ef5f6.o(.text.gattc_svc_changed_cfg_ind_handler)
    [Anonymous Symbol]                       0x07fc54e0   Section        0  lto-llvm-8ef5f6.o(.text.gattc_svc_changed_cfg_ind_handler)
    gattc_write_req_ind_handler              0x07fc54e5   Thumb Code   432  lto-llvm-8ef5f6.o(.text.gattc_write_req_ind_handler)
    [Anonymous Symbol]                       0x07fc54e4   Section        0  lto-llvm-8ef5f6.o(.text.gattc_write_req_ind_handler)
    __arm_cp.90_0                            0x07fc5694   Number         4  lto-llvm-8ef5f6.o(.text.gattc_write_req_ind_handler)
    __arm_cp.90_1                            0x07fc5698   Number         4  lto-llvm-8ef5f6.o(.text.gattc_write_req_ind_handler)
    __arm_cp.90_2                            0x07fc569c   Number         4  lto-llvm-8ef5f6.o(.text.gattc_write_req_ind_handler)
    __arm_cp.90_3                            0x07fc56a0   Number         4  lto-llvm-8ef5f6.o(.text.gattc_write_req_ind_handler)
    __arm_cp.90_4                            0x07fc56a4   Number         4  lto-llvm-8ef5f6.o(.text.gattc_write_req_ind_handler)
    __arm_cp.90_5                            0x07fc56a8   Number         4  lto-llvm-8ef5f6.o(.text.gattc_write_req_ind_handler)
    __arm_cp.90_6                            0x07fc56ac   Number         4  lto-llvm-8ef5f6.o(.text.gattc_write_req_ind_handler)
    gattc_write_req_ind_handler.102          0x07fc56b1   Thumb Code   496  lto-llvm-8ef5f6.o(.text.gattc_write_req_ind_handler.102)
    [Anonymous Symbol]                       0x07fc56b0   Section        0  lto-llvm-8ef5f6.o(.text.gattc_write_req_ind_handler.102)
    __arm_cp.115_2                           0x07fc58a0   Number         4  lto-llvm-8ef5f6.o(.text.gattc_write_req_ind_handler.102)
    __arm_cp.115_3                           0x07fc58a4   Number         4  lto-llvm-8ef5f6.o(.text.gattc_write_req_ind_handler.102)
    __arm_cp.115_4                           0x07fc58a8   Number         4  lto-llvm-8ef5f6.o(.text.gattc_write_req_ind_handler.102)
    gattc_write_req_ind_handler.108          0x07fc58ad   Thumb Code   204  lto-llvm-8ef5f6.o(.text.gattc_write_req_ind_handler.108)
    [Anonymous Symbol]                       0x07fc58ac   Section        0  lto-llvm-8ef5f6.o(.text.gattc_write_req_ind_handler.108)
    __arm_cp.128_0                           0x07fc5978   Number         4  lto-llvm-8ef5f6.o(.text.gattc_write_req_ind_handler.108)
    __arm_cp.128_1                           0x07fc597c   Number         4  lto-llvm-8ef5f6.o(.text.gattc_write_req_ind_handler.108)
    __arm_cp.128_2                           0x07fc5980   Number         4  lto-llvm-8ef5f6.o(.text.gattc_write_req_ind_handler.108)
    get_cfg_handle                           0x07fc5985   Thumb Code   104  lto-llvm-8ef5f6.o(.text.get_cfg_handle)
    [Anonymous Symbol]                       0x07fc5984   Section        0  lto-llvm-8ef5f6.o(.text.get_cfg_handle)
    __arm_cp.74_0                            0x07fc59ec   Number         4  lto-llvm-8ef5f6.o(.text.get_cfg_handle)
    get_rc16m_count                          0x07fc59f1   Thumb Code    72  lto-llvm-8ef5f6.o(.text.get_rc16m_count)
    [Anonymous Symbol]                       0x07fc59f0   Section        0  lto-llvm-8ef5f6.o(.text.get_rc16m_count)
    __arm_cp.22_0                            0x07fc5a38   Number         4  lto-llvm-8ef5f6.o(.text.get_rc16m_count)
    __arm_cp.22_1                            0x07fc5a3c   Number         4  lto-llvm-8ef5f6.o(.text.get_rc16m_count)
    get_user_prf_srv_perm                    0x07fc5a41   Thumb Code    36  lto-llvm-8ef5f6.o(.text.get_user_prf_srv_perm)
    [Anonymous Symbol]                       0x07fc5a40   Section        0  lto-llvm-8ef5f6.o(.text.get_user_prf_srv_perm)
    __arm_cp.134_0                           0x07fc5a64   Number         4  lto-llvm-8ef5f6.o(.text.get_user_prf_srv_perm)
    lld_sleep_compensate_func                0x07fc5a69   Thumb Code   108  lto-llvm-8ef5f6.o(.text.lld_sleep_compensate_func)
    [Anonymous Symbol]                       0x07fc5a68   Section        0  lto-llvm-8ef5f6.o(.text.lld_sleep_compensate_func)
    __arm_cp.60_2                            0x07fc5ad4   Number         4  lto-llvm-8ef5f6.o(.text.lld_sleep_compensate_func)
    __arm_cp.60_3                            0x07fc5ad8   Number         4  lto-llvm-8ef5f6.o(.text.lld_sleep_compensate_func)
    __arm_cp.60_4                            0x07fc5adc   Number         4  lto-llvm-8ef5f6.o(.text.lld_sleep_compensate_func)
    lld_sleep_init_func                      0x07fc5ae1   Thumb Code    28  lto-llvm-8ef5f6.o(.text.lld_sleep_init_func)
    [Anonymous Symbol]                       0x07fc5ae0   Section        0  lto-llvm-8ef5f6.o(.text.lld_sleep_init_func)
    __arm_cp.25_0                            0x07fc5afc   Number         4  lto-llvm-8ef5f6.o(.text.lld_sleep_init_func)
    __arm_cp.25_1                            0x07fc5b00   Number         4  lto-llvm-8ef5f6.o(.text.lld_sleep_init_func)
    lld_sleep_lpcycles_2_us_sel_func         0x07fc5b05   Thumb Code     8  lto-llvm-8ef5f6.o(.text.lld_sleep_lpcycles_2_us_sel_func)
    [Anonymous Symbol]                       0x07fc5b04   Section        0  lto-llvm-8ef5f6.o(.text.lld_sleep_lpcycles_2_us_sel_func)
    lld_sleep_us_2_lpcycles_sel_func         0x07fc5b0d   Thumb Code     8  lto-llvm-8ef5f6.o(.text.lld_sleep_us_2_lpcycles_sel_func)
    [Anonymous Symbol]                       0x07fc5b0c   Section        0  lto-llvm-8ef5f6.o(.text.lld_sleep_us_2_lpcycles_sel_func)
    ltk_exch_create_msg                      0x07fc5b15   Thumb Code    44  lto-llvm-8ef5f6.o(.text.ltk_exch_create_msg)
    [Anonymous Symbol]                       0x07fc5b14   Section        0  lto-llvm-8ef5f6.o(.text.ltk_exch_create_msg)
    __arm_cp.189_0                           0x07fc5b40   Number         4  lto-llvm-8ef5f6.o(.text.ltk_exch_create_msg)
    __arm_cp.189_1                           0x07fc5b44   Number         4  lto-llvm-8ef5f6.o(.text.ltk_exch_create_msg)
    [Anonymous Symbol]                       0x07fc5b48   Section        0  lto-llvm-8ef5f6.o(.text.main)
    __arm_cp.13_73                           0x07fc5f50   Number         4  lto-llvm-8ef5f6.o(.text.main)
    __arm_cp.13_75                           0x07fc5f58   Number         4  lto-llvm-8ef5f6.o(.text.main)
    __arm_cp.13_76                           0x07fc5f5c   Number         4  lto-llvm-8ef5f6.o(.text.main)
    __arm_cp.13_79                           0x07fc5f68   Number         4  lto-llvm-8ef5f6.o(.text.main)
    __arm_cp.13_81                           0x07fc5f70   Number         4  lto-llvm-8ef5f6.o(.text.main)
    __arm_cp.13_82                           0x07fc5f74   Number         4  lto-llvm-8ef5f6.o(.text.main)
    __arm_cp.13_83                           0x07fc5f78   Number         4  lto-llvm-8ef5f6.o(.text.main)
    __arm_cp.13_84                           0x07fc5f7c   Number         4  lto-llvm-8ef5f6.o(.text.main)
    __arm_cp.13_85                           0x07fc5f80   Number         4  lto-llvm-8ef5f6.o(.text.main)
    __arm_cp.13_86                           0x07fc5f84   Number         4  lto-llvm-8ef5f6.o(.text.main)
    __arm_cp.13_87                           0x07fc5f88   Number         4  lto-llvm-8ef5f6.o(.text.main)
    __arm_cp.13_88                           0x07fc5f8c   Number         4  lto-llvm-8ef5f6.o(.text.main)
    __arm_cp.13_89                           0x07fc5f90   Number         4  lto-llvm-8ef5f6.o(.text.main)
    __arm_cp.13_90                           0x07fc5f94   Number         4  lto-llvm-8ef5f6.o(.text.main)
    __arm_cp.13_91                           0x07fc5f98   Number         4  lto-llvm-8ef5f6.o(.text.main)
    __arm_cp.13_92                           0x07fc5f9c   Number         4  lto-llvm-8ef5f6.o(.text.main)
    __arm_cp.13_94                           0x07fc5fa4   Number         4  lto-llvm-8ef5f6.o(.text.main)
    __arm_cp.13_95                           0x07fc5fa8   Number         4  lto-llvm-8ef5f6.o(.text.main)
    __arm_cp.13_96                           0x07fc5fac   Number         4  lto-llvm-8ef5f6.o(.text.main)
    __arm_cp.13_97                           0x07fc5fb0   Number         4  lto-llvm-8ef5f6.o(.text.main)
    __arm_cp.13_98                           0x07fc5fb4   Number         4  lto-llvm-8ef5f6.o(.text.main)
    __arm_cp.13_99                           0x07fc5fb8   Number         4  lto-llvm-8ef5f6.o(.text.main)
    __arm_cp.13_100                          0x07fc5fbc   Number         4  lto-llvm-8ef5f6.o(.text.main)
    __arm_cp.13_101                          0x07fc5fc0   Number         4  lto-llvm-8ef5f6.o(.text.main)
    __arm_cp.13_102                          0x07fc5fc4   Number         4  lto-llvm-8ef5f6.o(.text.main)
    __arm_cp.13_103                          0x07fc5fc8   Number         4  lto-llvm-8ef5f6.o(.text.main)
    __arm_cp.13_104                          0x07fc5fcc   Number         4  lto-llvm-8ef5f6.o(.text.main)
    __arm_cp.13_105                          0x07fc5fd0   Number         4  lto-llvm-8ef5f6.o(.text.main)
    __arm_cp.13_106                          0x07fc5fd4   Number         4  lto-llvm-8ef5f6.o(.text.main)
    __arm_cp.13_107                          0x07fc5fd8   Number         4  lto-llvm-8ef5f6.o(.text.main)
    __arm_cp.13_115                          0x07fc5ff8   Number         4  lto-llvm-8ef5f6.o(.text.main)
    __arm_cp.13_118                          0x07fc6004   Number         4  lto-llvm-8ef5f6.o(.text.main)
    __arm_cp.13_120                          0x07fc63f8   Number         4  lto-llvm-8ef5f6.o(.text.main)
    __arm_cp.13_122                          0x07fc6400   Number         4  lto-llvm-8ef5f6.o(.text.main)
    __arm_cp.13_123                          0x07fc6404   Number         4  lto-llvm-8ef5f6.o(.text.main)
    __arm_cp.13_124                          0x07fc6408   Number         4  lto-llvm-8ef5f6.o(.text.main)
    __arm_cp.13_125                          0x07fc640c   Number         4  lto-llvm-8ef5f6.o(.text.main)
    __arm_cp.13_126                          0x07fc6410   Number         4  lto-llvm-8ef5f6.o(.text.main)
    __arm_cp.13_130                          0x07fc6420   Number         4  lto-llvm-8ef5f6.o(.text.main)
    __arm_cp.13_132                          0x07fc6428   Number         4  lto-llvm-8ef5f6.o(.text.main)
    __arm_cp.13_133                          0x07fc642c   Number         4  lto-llvm-8ef5f6.o(.text.main)
    __arm_cp.13_134                          0x07fc6430   Number         4  lto-llvm-8ef5f6.o(.text.main)
    __arm_cp.13_135                          0x07fc6434   Number         4  lto-llvm-8ef5f6.o(.text.main)
    __arm_cp.13_136                          0x07fc6438   Number         4  lto-llvm-8ef5f6.o(.text.main)
    __arm_cp.13_137                          0x07fc643c   Number         4  lto-llvm-8ef5f6.o(.text.main)
    __arm_cp.13_140                          0x07fc6450   Number         4  lto-llvm-8ef5f6.o(.text.main)
    __arm_cp.13_141                          0x07fc6454   Number         4  lto-llvm-8ef5f6.o(.text.main)
    __arm_cp.13_142                          0x07fc6458   Number         4  lto-llvm-8ef5f6.o(.text.main)
    __arm_cp.13_143                          0x07fc645c   Number         4  lto-llvm-8ef5f6.o(.text.main)
    __arm_cp.13_1                            0x07fc6534   Number         4  lto-llvm-8ef5f6.o(.text.main)
    __arm_cp.13_3                            0x07fc6538   Number         4  lto-llvm-8ef5f6.o(.text.main)
    __arm_cp.13_6                            0x07fc653c   Number         4  lto-llvm-8ef5f6.o(.text.main)
    __arm_cp.13_7                            0x07fc6540   Number         4  lto-llvm-8ef5f6.o(.text.main)
    __arm_cp.13_22                           0x07fc6544   Number         4  lto-llvm-8ef5f6.o(.text.main)
    __arm_cp.13_37                           0x07fc6548   Number         4  lto-llvm-8ef5f6.o(.text.main)
    __arm_cp.13_38                           0x07fc654c   Number         4  lto-llvm-8ef5f6.o(.text.main)
    __arm_cp.13_39                           0x07fc6550   Number         4  lto-llvm-8ef5f6.o(.text.main)
    __arm_cp.13_40                           0x07fc6554   Number         4  lto-llvm-8ef5f6.o(.text.main)
    __arm_cp.13_48                           0x07fc6558   Number         4  lto-llvm-8ef5f6.o(.text.main)
    __arm_cp.13_58                           0x07fc655c   Number         4  lto-llvm-8ef5f6.o(.text.main)
    __arm_cp.13_59                           0x07fc6560   Number         4  lto-llvm-8ef5f6.o(.text.main)
    __arm_cp.13_60                           0x07fc6564   Number         4  lto-llvm-8ef5f6.o(.text.main)
    __arm_cp.13_61                           0x07fc6568   Number         4  lto-llvm-8ef5f6.o(.text.main)
    __arm_cp.13_62                           0x07fc656c   Number         4  lto-llvm-8ef5f6.o(.text.main)
    __arm_cp.13_63                           0x07fc6570   Number         4  lto-llvm-8ef5f6.o(.text.main)
    __arm_cp.13_64                           0x07fc6574   Number         4  lto-llvm-8ef5f6.o(.text.main)
    __arm_cp.13_65                           0x07fc6578   Number         4  lto-llvm-8ef5f6.o(.text.main)
    __arm_cp.13_69                           0x07fc657c   Number         4  lto-llvm-8ef5f6.o(.text.main)
    mnf_data_update                          0x07fc6581   Thumb Code    40  lto-llvm-8ef5f6.o(.text.mnf_data_update)
    [Anonymous Symbol]                       0x07fc6580   Section        0  lto-llvm-8ef5f6.o(.text.mnf_data_update)
    __arm_cp.203_0                           0x07fc65a8   Number         4  lto-llvm-8ef5f6.o(.text.mnf_data_update)
    __arm_cp.203_1                           0x07fc65ac   Number         4  lto-llvm-8ef5f6.o(.text.mnf_data_update)
    nvds_del_func                            0x07fc65b1   Thumb Code     4  lto-llvm-8ef5f6.o(.text.nvds_del_func)
    [Anonymous Symbol]                       0x07fc65b0   Section        0  lto-llvm-8ef5f6.o(.text.nvds_del_func)
    nvds_get_func                            0x07fc65b5   Thumb Code   192  lto-llvm-8ef5f6.o(.text.nvds_get_func)
    [Anonymous Symbol]                       0x07fc65b4   Section        0  lto-llvm-8ef5f6.o(.text.nvds_get_func)
    __arm_cp.9_1                             0x07fc6674   Number         4  lto-llvm-8ef5f6.o(.text.nvds_get_func)
    __arm_cp.9_2                             0x07fc6678   Number         4  lto-llvm-8ef5f6.o(.text.nvds_get_func)
    nvds_init_func                           0x07fc667d   Thumb Code     4  lto-llvm-8ef5f6.o(.text.nvds_init_func)
    [Anonymous Symbol]                       0x07fc667c   Section        0  lto-llvm-8ef5f6.o(.text.nvds_init_func)
    nvds_put_func                            0x07fc6681   Thumb Code     4  lto-llvm-8ef5f6.o(.text.nvds_put_func)
    [Anonymous Symbol]                       0x07fc6680   Section        0  lto-llvm-8ef5f6.o(.text.nvds_put_func)
    on_suotar_status_change                  0x07fc6685   Thumb Code    42  lto-llvm-8ef5f6.o(.text.on_suotar_status_change)
    [Anonymous Symbol]                       0x07fc6684   Section        0  lto-llvm-8ef5f6.o(.text.on_suotar_status_change)
    param_update_request_timer_cb            0x07fc66b1   Thumb Code    76  lto-llvm-8ef5f6.o(.text.param_update_request_timer_cb)
    [Anonymous Symbol]                       0x07fc66b0   Section        0  lto-llvm-8ef5f6.o(.text.param_update_request_timer_cb)
    __arm_cp.204_0                           0x07fc66fc   Number         4  lto-llvm-8ef5f6.o(.text.param_update_request_timer_cb)
    __arm_cp.204_1                           0x07fc6700   Number         4  lto-llvm-8ef5f6.o(.text.param_update_request_timer_cb)
    periph_init                              0x07fc6705   Thumb Code   276  lto-llvm-8ef5f6.o(.text.periph_init)
    [Anonymous Symbol]                       0x07fc6704   Section        0  lto-llvm-8ef5f6.o(.text.periph_init)
    __arm_cp.199_0                           0x07fc6818   Number         4  lto-llvm-8ef5f6.o(.text.periph_init)
    __arm_cp.199_1                           0x07fc681c   Number         4  lto-llvm-8ef5f6.o(.text.periph_init)
    __arm_cp.199_2                           0x07fc6820   Number         4  lto-llvm-8ef5f6.o(.text.periph_init)
    __arm_cp.199_3                           0x07fc6824   Number         4  lto-llvm-8ef5f6.o(.text.periph_init)
    __arm_cp.199_4                           0x07fc6828   Number         4  lto-llvm-8ef5f6.o(.text.periph_init)
    __arm_cp.199_5                           0x07fc682c   Number         4  lto-llvm-8ef5f6.o(.text.periph_init)
    spi_flash_cfg                            0x07fc6830   Number         0  lto-llvm-8ef5f6.o(.text.periph_init)
    __arm_cp.199_7                           0x07fc683c   Number         4  lto-llvm-8ef5f6.o(.text.periph_init)
    __arm_cp.199_8                           0x07fc6840   Number         4  lto-llvm-8ef5f6.o(.text.periph_init)
    __arm_cp.199_9                           0x07fc6844   Number         4  lto-llvm-8ef5f6.o(.text.periph_init)
    platform_reset_func                      0x07fc6849   Thumb Code    16  lto-llvm-8ef5f6.o(.text.platform_reset_func)
    [Anonymous Symbol]                       0x07fc6848   Section        0  lto-llvm-8ef5f6.o(.text.platform_reset_func)
    __arm_cp.14_0                            0x07fc6858   Number         4  lto-llvm-8ef5f6.o(.text.platform_reset_func)
    __arm_cp.14_1                            0x07fc685c   Number         4  lto-llvm-8ef5f6.o(.text.platform_reset_func)
    prf_add_profile_func                     0x07fc6861   Thumb Code   112  lto-llvm-8ef5f6.o(.text.prf_add_profile_func)
    [Anonymous Symbol]                       0x07fc6860   Section        0  lto-llvm-8ef5f6.o(.text.prf_add_profile_func)
    prf_cleanup_func                         0x07fc68d1   Thumb Code    44  lto-llvm-8ef5f6.o(.text.prf_cleanup_func)
    [Anonymous Symbol]                       0x07fc68d0   Section        0  lto-llvm-8ef5f6.o(.text.prf_cleanup_func)
    prf_create_func                          0x07fc68fd   Thumb Code    40  lto-llvm-8ef5f6.o(.text.prf_create_func)
    [Anonymous Symbol]                       0x07fc68fc   Section        0  lto-llvm-8ef5f6.o(.text.prf_create_func)
    prf_env_get                              0x07fc6925   Thumb Code    40  lto-llvm-8ef5f6.o(.text.prf_env_get)
    [Anonymous Symbol]                       0x07fc6924   Section        0  lto-llvm-8ef5f6.o(.text.prf_env_get)
    prf_get_id_from_task_func                0x07fc694d   Thumb Code    40  lto-llvm-8ef5f6.o(.text.prf_get_id_from_task_func)
    [Anonymous Symbol]                       0x07fc694c   Section        0  lto-llvm-8ef5f6.o(.text.prf_get_id_from_task_func)
    prf_get_task_from_id_func                0x07fc6975   Thumb Code    40  lto-llvm-8ef5f6.o(.text.prf_get_task_from_id_func)
    [Anonymous Symbol]                       0x07fc6974   Section        0  lto-llvm-8ef5f6.o(.text.prf_get_task_from_id_func)
    prf_init_func                            0x07fc699d   Thumb Code    96  lto-llvm-8ef5f6.o(.text.prf_init_func)
    [Anonymous Symbol]                       0x07fc699c   Section        0  lto-llvm-8ef5f6.o(.text.prf_init_func)
    __arm_cp.102_0                           0x07fc69fc   Number         4  lto-llvm-8ef5f6.o(.text.prf_init_func)
    prf_itf_get                              0x07fc6a01   Thumb Code    40  lto-llvm-8ef5f6.o(.text.prf_itf_get)
    [Anonymous Symbol]                       0x07fc6a00   Section        0  lto-llvm-8ef5f6.o(.text.prf_itf_get)
    __arm_cp.103_0                           0x07fc6a28   Number         4  lto-llvm-8ef5f6.o(.text.prf_itf_get)
    __arm_cp.103_1                           0x07fc6a2c   Number         4  lto-llvm-8ef5f6.o(.text.prf_itf_get)
    __arm_cp.103_2                           0x07fc6a30   Number         4  lto-llvm-8ef5f6.o(.text.prf_itf_get)
    __arm_cp.103_3                           0x07fc6a34   Number         4  lto-llvm-8ef5f6.o(.text.prf_itf_get)
    rf_force_agc_enable                      0x07fc6a39   Thumb Code     2  lto-llvm-8ef5f6.o(.text.rf_force_agc_enable)
    [Anonymous Symbol]                       0x07fc6a38   Section        0  lto-llvm-8ef5f6.o(.text.rf_force_agc_enable)
    rf_init_func                             0x07fc6a3d   Thumb Code   120  lto-llvm-8ef5f6.o(.text.rf_init_func)
    [Anonymous Symbol]                       0x07fc6a3c   Section        0  lto-llvm-8ef5f6.o(.text.rf_init_func)
    __arm_cp.64_0                            0x07fc6ab4   Number         4  lto-llvm-8ef5f6.o(.text.rf_init_func)
    __arm_cp.64_1                            0x07fc6ab8   Number         4  lto-llvm-8ef5f6.o(.text.rf_init_func)
    __arm_cp.64_2                            0x07fc6abc   Number         4  lto-llvm-8ef5f6.o(.text.rf_init_func)
    __arm_cp.64_3                            0x07fc6ac0   Number         4  lto-llvm-8ef5f6.o(.text.rf_init_func)
    __arm_cp.64_4                            0x07fc6ac4   Number         4  lto-llvm-8ef5f6.o(.text.rf_init_func)
    __arm_cp.64_5                            0x07fc6ac8   Number         4  lto-llvm-8ef5f6.o(.text.rf_init_func)
    __arm_cp.64_6                            0x07fc6acc   Number         4  lto-llvm-8ef5f6.o(.text.rf_init_func)
    __arm_cp.64_7                            0x07fc6ad0   Number         4  lto-llvm-8ef5f6.o(.text.rf_init_func)
    __arm_cp.64_8                            0x07fc6ad4   Number         4  lto-llvm-8ef5f6.o(.text.rf_init_func)
    __arm_cp.64_9                            0x07fc6ad8   Number         4  lto-llvm-8ef5f6.o(.text.rf_init_func)
    __arm_cp.64_10                           0x07fc6adc   Number         4  lto-llvm-8ef5f6.o(.text.rf_init_func)
    rf_reg_rd                                0x07fc6ae1   Thumb Code     4  lto-llvm-8ef5f6.o(.text.rf_reg_rd)
    [Anonymous Symbol]                       0x07fc6ae0   Section        0  lto-llvm-8ef5f6.o(.text.rf_reg_rd)
    rf_reg_wr                                0x07fc6ae5   Thumb Code     2  lto-llvm-8ef5f6.o(.text.rf_reg_wr)
    [Anonymous Symbol]                       0x07fc6ae4   Section        0  lto-llvm-8ef5f6.o(.text.rf_reg_wr)
    rf_regs                                  0x07fc6ae9   Thumb Code    48  lto-llvm-8ef5f6.o(.text.rf_regs)
    [Anonymous Symbol]                       0x07fc6ae8   Section        0  lto-llvm-8ef5f6.o(.text.rf_regs)
    __arm_cp.63_0                            0x07fc6b18   Number         4  lto-llvm-8ef5f6.o(.text.rf_regs)
    __arm_cp.63_1                            0x07fc6b1c   Number         4  lto-llvm-8ef5f6.o(.text.rf_regs)
    __arm_cp.63_2                            0x07fc6b20   Number         4  lto-llvm-8ef5f6.o(.text.rf_regs)
    __arm_cp.63_3                            0x07fc6b24   Number         4  lto-llvm-8ef5f6.o(.text.rf_regs)
    __arm_cp.63_4                            0x07fc6b28   Number         4  lto-llvm-8ef5f6.o(.text.rf_regs)
    __arm_cp.63_5                            0x07fc6b2c   Number         4  lto-llvm-8ef5f6.o(.text.rf_regs)
    __arm_cp.63_7                            0x07fc6b30   Number         4  lto-llvm-8ef5f6.o(.text.rf_regs)
    rf_reinit_func                           0x07fc6b35   Thumb Code    72  lto-llvm-8ef5f6.o(.text.rf_reinit_func)
    [Anonymous Symbol]                       0x07fc6b34   Section        0  lto-llvm-8ef5f6.o(.text.rf_reinit_func)
    __arm_cp.73_0                            0x07fc6b7c   Number         4  lto-llvm-8ef5f6.o(.text.rf_reinit_func)
    rf_reset                                 0x07fc6b81   Thumb Code     2  lto-llvm-8ef5f6.o(.text.rf_reset)
    [Anonymous Symbol]                       0x07fc6b80   Section        0  lto-llvm-8ef5f6.o(.text.rf_reset)
    rf_rssi_convert                          0x07fc6b83   Thumb Code     8  lto-llvm-8ef5f6.o(.text.rf_rssi_convert)
    [Anonymous Symbol]                       0x07fc6b82   Section        0  lto-llvm-8ef5f6.o(.text.rf_rssi_convert)
    rf_sleep                                 0x07fc6b8d   Thumb Code    12  lto-llvm-8ef5f6.o(.text.rf_sleep)
    [Anonymous Symbol]                       0x07fc6b8c   Section        0  lto-llvm-8ef5f6.o(.text.rf_sleep)
    __arm_cp.68_0                            0x07fc6b98   Number         4  lto-llvm-8ef5f6.o(.text.rf_sleep)
    rf_txpwr_dbm_get                         0x07fc6b9d   Thumb Code     4  lto-llvm-8ef5f6.o(.text.rf_txpwr_dbm_get)
    [Anonymous Symbol]                       0x07fc6b9c   Section        0  lto-llvm-8ef5f6.o(.text.rf_txpwr_dbm_get)
    [Anonymous Symbol]                       0x07fc6ba0   Section        0  lto-llvm-8ef5f6.o(.text.rwble_isr)
    __arm_cp.62_0                            0x07fc6c84   Number         4  lto-llvm-8ef5f6.o(.text.rwble_isr)
    __arm_cp.62_1                            0x07fc6c88   Number         4  lto-llvm-8ef5f6.o(.text.rwble_isr)
    __arm_cp.62_3                            0x07fc6c8c   Number         4  lto-llvm-8ef5f6.o(.text.rwble_isr)
    __arm_cp.62_4                            0x07fc6c90   Number         4  lto-llvm-8ef5f6.o(.text.rwble_isr)
    set_sleep_delay                          0x07fc6c95   Thumb Code    60  lto-llvm-8ef5f6.o(.text.set_sleep_delay)
    [Anonymous Symbol]                       0x07fc6c94   Section        0  lto-llvm-8ef5f6.o(.text.set_sleep_delay)
    __arm_cp.21_1                            0x07fc6cd0   Number         4  lto-llvm-8ef5f6.o(.text.set_sleep_delay)
    __arm_cp.21_2                            0x07fc6cd4   Number         4  lto-llvm-8ef5f6.o(.text.set_sleep_delay)
    spi_access                               0x07fc6cd9   Thumb Code    56  lto-llvm-8ef5f6.o(.text.spi_access)
    [Anonymous Symbol]                       0x07fc6cd8   Section        0  lto-llvm-8ef5f6.o(.text.spi_access)
    spi_cs_high                              0x07fc6d11   Thumb Code    16  lto-llvm-8ef5f6.o(.text.spi_cs_high)
    [Anonymous Symbol]                       0x07fc6d10   Section        0  lto-llvm-8ef5f6.o(.text.spi_cs_high)
    spi_cs_low                               0x07fc6d21   Thumb Code    24  lto-llvm-8ef5f6.o(.text.spi_cs_low)
    [Anonymous Symbol]                       0x07fc6d20   Section        0  lto-llvm-8ef5f6.o(.text.spi_cs_low)
    __arm_cp.43_0                            0x07fc6d38   Number         4  lto-llvm-8ef5f6.o(.text.spi_cs_low)
    __arm_cp.43_1                            0x07fc6d3c   Number         4  lto-llvm-8ef5f6.o(.text.spi_cs_low)
    spi_flash_auto_detect                    0x07fc6d41   Thumb Code   112  lto-llvm-8ef5f6.o(.text.spi_flash_auto_detect)
    [Anonymous Symbol]                       0x07fc6d40   Section        0  lto-llvm-8ef5f6.o(.text.spi_flash_auto_detect)
    __arm_cp.50_0                            0x07fc6db0   Number         4  lto-llvm-8ef5f6.o(.text.spi_flash_auto_detect)
    __arm_cp.50_1                            0x07fc6db4   Number         4  lto-llvm-8ef5f6.o(.text.spi_flash_auto_detect)
    spi_flash_is_busy                        0x07fc6db9   Thumb Code    18  lto-llvm-8ef5f6.o(.text.spi_flash_is_busy)
    [Anonymous Symbol]                       0x07fc6db8   Section        0  lto-llvm-8ef5f6.o(.text.spi_flash_is_busy)
    spi_flash_peripheral_init                0x07fc6dcd   Thumb Code    20  lto-llvm-8ef5f6.o(.text.spi_flash_peripheral_init)
    [Anonymous Symbol]                       0x07fc6dcc   Section        0  lto-llvm-8ef5f6.o(.text.spi_flash_peripheral_init)
    __arm_cp.212_0                           0x07fc6de0   Number         4  lto-llvm-8ef5f6.o(.text.spi_flash_peripheral_init)
    __arm_cp.212_1                           0x07fc6de4   Number         4  lto-llvm-8ef5f6.o(.text.spi_flash_peripheral_init)
    spi_flash_read_data                      0x07fc6de9   Thumb Code    92  lto-llvm-8ef5f6.o(.text.spi_flash_read_data)
    [Anonymous Symbol]                       0x07fc6de8   Section        0  lto-llvm-8ef5f6.o(.text.spi_flash_read_data)
    __arm_cp.53_0                            0x07fc6e44   Number         4  lto-llvm-8ef5f6.o(.text.spi_flash_read_data)
    spi_flash_read_status_reg                0x07fc6e49   Thumb Code    20  lto-llvm-8ef5f6.o(.text.spi_flash_read_status_reg)
    [Anonymous Symbol]                       0x07fc6e48   Section        0  lto-llvm-8ef5f6.o(.text.spi_flash_read_status_reg)
    spi_flash_release_from_power_down        0x07fc6e5d   Thumb Code    24  lto-llvm-8ef5f6.o(.text.spi_flash_release_from_power_down)
    [Anonymous Symbol]                       0x07fc6e5c   Section        0  lto-llvm-8ef5f6.o(.text.spi_flash_release_from_power_down)
    spi_flash_ultra_deep_power_down          0x07fc6e75   Thumb Code    26  lto-llvm-8ef5f6.o(.text.spi_flash_ultra_deep_power_down)
    [Anonymous Symbol]                       0x07fc6e74   Section        0  lto-llvm-8ef5f6.o(.text.spi_flash_ultra_deep_power_down)
    spi_flash_wait_till_ready                0x07fc6e91   Thumb Code    36  lto-llvm-8ef5f6.o(.text.spi_flash_wait_till_ready)
    [Anonymous Symbol]                       0x07fc6e90   Section        0  lto-llvm-8ef5f6.o(.text.spi_flash_wait_till_ready)
    __arm_cp.48_0                            0x07fc6eb4   Number         4  lto-llvm-8ef5f6.o(.text.spi_flash_wait_till_ready)
    spi_flash_write_enable                   0x07fc6eb9   Thumb Code    50  lto-llvm-8ef5f6.o(.text.spi_flash_write_enable)
    [Anonymous Symbol]                       0x07fc6eb8   Section        0  lto-llvm-8ef5f6.o(.text.spi_flash_write_enable)
    spi_set_bitmode                          0x07fc6eed   Thumb Code    32  lto-llvm-8ef5f6.o(.text.spi_set_bitmode)
    [Anonymous Symbol]                       0x07fc6eec   Section        0  lto-llvm-8ef5f6.o(.text.spi_set_bitmode)
    __arm_cp.42_0                            0x07fc6f0c   Number         4  lto-llvm-8ef5f6.o(.text.spi_set_bitmode)
    __arm_cp.42_1                            0x07fc6f10   Number         4  lto-llvm-8ef5f6.o(.text.spi_set_bitmode)
    spi_transaction                          0x07fc6f15   Thumb Code    24  lto-llvm-8ef5f6.o(.text.spi_transaction)
    [Anonymous Symbol]                       0x07fc6f14   Section        0  lto-llvm-8ef5f6.o(.text.spi_transaction)
    suotar_cleanup                           0x07fc6f2d   Thumb Code    44  lto-llvm-8ef5f6.o(.text.suotar_cleanup)
    [Anonymous Symbol]                       0x07fc6f2c   Section        0  lto-llvm-8ef5f6.o(.text.suotar_cleanup)
    __arm_cp.113_0                           0x07fc6f58   Number         4  lto-llvm-8ef5f6.o(.text.suotar_cleanup)
    __arm_cp.113_1                           0x07fc6f5c   Number         4  lto-llvm-8ef5f6.o(.text.suotar_cleanup)
    suotar_create                            0x07fc6f61   Thumb Code     2  lto-llvm-8ef5f6.o(.text.suotar_create)
    [Anonymous Symbol]                       0x07fc6f60   Section        0  lto-llvm-8ef5f6.o(.text.suotar_create)
    suotar_destroy                           0x07fc6f63   Thumb Code    16  lto-llvm-8ef5f6.o(.text.suotar_destroy)
    [Anonymous Symbol]                       0x07fc6f62   Section        0  lto-llvm-8ef5f6.o(.text.suotar_destroy)
    suotar_gpio_map_ind_handler              0x07fc6f75   Thumb Code    52  lto-llvm-8ef5f6.o(.text.suotar_gpio_map_ind_handler)
    [Anonymous Symbol]                       0x07fc6f74   Section        0  lto-llvm-8ef5f6.o(.text.suotar_gpio_map_ind_handler)
    __arm_cp.182_0                           0x07fc6fa8   Number         4  lto-llvm-8ef5f6.o(.text.suotar_gpio_map_ind_handler)
    __arm_cp.182_1                           0x07fc6fac   Number         4  lto-llvm-8ef5f6.o(.text.suotar_gpio_map_ind_handler)
    suotar_init                              0x07fc6fb1   Thumb Code   896  lto-llvm-8ef5f6.o(.text.suotar_init)
    [Anonymous Symbol]                       0x07fc6fb0   Section        0  lto-llvm-8ef5f6.o(.text.suotar_init)
    __arm_cp.110_1                           0x07fc7340   Number         4  lto-llvm-8ef5f6.o(.text.suotar_init)
    __arm_cp.110_2                           0x07fc7344   Number         4  lto-llvm-8ef5f6.o(.text.suotar_init)
    __arm_cp.110_3                           0x07fc7348   Number         4  lto-llvm-8ef5f6.o(.text.suotar_init)
    __arm_cp.110_4                           0x07fc734c   Number         4  lto-llvm-8ef5f6.o(.text.suotar_init)
    __arm_cp.110_5                           0x07fc7350   Number         4  lto-llvm-8ef5f6.o(.text.suotar_init)
    __arm_cp.110_6                           0x07fc7354   Number         4  lto-llvm-8ef5f6.o(.text.suotar_init)
    __arm_cp.110_7                           0x07fc7358   Number         4  lto-llvm-8ef5f6.o(.text.suotar_init)
    __arm_cp.110_8                           0x07fc735c   Number         4  lto-llvm-8ef5f6.o(.text.suotar_init)
    __arm_cp.110_9                           0x07fc7360   Number         4  lto-llvm-8ef5f6.o(.text.suotar_init)
    __arm_cp.110_10                          0x07fc7364   Number         4  lto-llvm-8ef5f6.o(.text.suotar_init)
    __arm_cp.110_11                          0x07fc7368   Number         4  lto-llvm-8ef5f6.o(.text.suotar_init)
    __arm_cp.110_12                          0x07fc736c   Number         4  lto-llvm-8ef5f6.o(.text.suotar_init)
    __arm_cp.110_13                          0x07fc7370   Number         4  lto-llvm-8ef5f6.o(.text.suotar_init)
    __arm_cp.110_14                          0x07fc7374   Number         4  lto-llvm-8ef5f6.o(.text.suotar_init)
    __arm_cp.110_15                          0x07fc7378   Number         4  lto-llvm-8ef5f6.o(.text.suotar_init)
    __arm_cp.110_16                          0x07fc737c   Number         4  lto-llvm-8ef5f6.o(.text.suotar_init)
    __arm_cp.110_17                          0x07fc7380   Number         4  lto-llvm-8ef5f6.o(.text.suotar_init)
    __arm_cp.110_18                          0x07fc7384   Number         4  lto-llvm-8ef5f6.o(.text.suotar_init)
    __arm_cp.110_19                          0x07fc7388   Number         4  lto-llvm-8ef5f6.o(.text.suotar_init)
    __arm_cp.110_20                          0x07fc738c   Number         4  lto-llvm-8ef5f6.o(.text.suotar_init)
    __arm_cp.110_21                          0x07fc7390   Number         4  lto-llvm-8ef5f6.o(.text.suotar_init)
    __arm_cp.110_22                          0x07fc7394   Number         4  lto-llvm-8ef5f6.o(.text.suotar_init)
    __arm_cp.110_23                          0x07fc7398   Number         4  lto-llvm-8ef5f6.o(.text.suotar_init)
    __arm_cp.110_24                          0x07fc739c   Number         4  lto-llvm-8ef5f6.o(.text.suotar_init)
    __arm_cp.110_25                          0x07fc73a0   Number         4  lto-llvm-8ef5f6.o(.text.suotar_init)
    __arm_cp.110_26                          0x07fc73a4   Number         4  lto-llvm-8ef5f6.o(.text.suotar_init)
    __arm_cp.110_27                          0x07fc73a8   Number         4  lto-llvm-8ef5f6.o(.text.suotar_init)
    __arm_cp.110_28                          0x07fc73ac   Number         4  lto-llvm-8ef5f6.o(.text.suotar_init)
    __arm_cp.110_29                          0x07fc73b0   Number         4  lto-llvm-8ef5f6.o(.text.suotar_init)
    __arm_cp.110_30                          0x07fc73b4   Number         4  lto-llvm-8ef5f6.o(.text.suotar_init)
    __arm_cp.110_31                          0x07fc73b8   Number         4  lto-llvm-8ef5f6.o(.text.suotar_init)
    __arm_cp.110_32                          0x07fc73bc   Number         4  lto-llvm-8ef5f6.o(.text.suotar_init)
    __arm_cp.110_33                          0x07fc73c0   Number         4  lto-llvm-8ef5f6.o(.text.suotar_init)
    __arm_cp.110_34                          0x07fc73c4   Number         4  lto-llvm-8ef5f6.o(.text.suotar_init)
    __arm_cp.110_35                          0x07fc73c8   Number         4  lto-llvm-8ef5f6.o(.text.suotar_init)
    __arm_cp.110_36                          0x07fc73cc   Number         4  lto-llvm-8ef5f6.o(.text.suotar_init)
    __arm_cp.110_37                          0x07fc73d0   Number         4  lto-llvm-8ef5f6.o(.text.suotar_init)
    __arm_cp.110_38                          0x07fc73d4   Number         4  lto-llvm-8ef5f6.o(.text.suotar_init)
    __arm_cp.110_39                          0x07fc73d8   Number         4  lto-llvm-8ef5f6.o(.text.suotar_init)
    __arm_cp.110_40                          0x07fc73dc   Number         4  lto-llvm-8ef5f6.o(.text.suotar_init)
    __arm_cp.110_41                          0x07fc73e0   Number         4  lto-llvm-8ef5f6.o(.text.suotar_init)
    __arm_cp.110_42                          0x07fc73e4   Number         4  lto-llvm-8ef5f6.o(.text.suotar_init)
    __arm_cp.110_43                          0x07fc73e8   Number         4  lto-llvm-8ef5f6.o(.text.suotar_init)
    __arm_cp.110_44                          0x07fc73ec   Number         4  lto-llvm-8ef5f6.o(.text.suotar_init)
    __arm_cp.110_45                          0x07fc73f0   Number         4  lto-llvm-8ef5f6.o(.text.suotar_init)
    __arm_cp.110_46                          0x07fc73f4   Number         4  lto-llvm-8ef5f6.o(.text.suotar_init)
    __arm_cp.110_47                          0x07fc73f8   Number         4  lto-llvm-8ef5f6.o(.text.suotar_init)
    __arm_cp.110_48                          0x07fc73fc   Number         4  lto-llvm-8ef5f6.o(.text.suotar_init)
    __arm_cp.110_49                          0x07fc7400   Number         4  lto-llvm-8ef5f6.o(.text.suotar_init)
    __arm_cp.110_50                          0x07fc7404   Number         4  lto-llvm-8ef5f6.o(.text.suotar_init)
    __arm_cp.110_51                          0x07fc7408   Number         4  lto-llvm-8ef5f6.o(.text.suotar_init)
    __arm_cp.110_52                          0x07fc740c   Number         4  lto-llvm-8ef5f6.o(.text.suotar_init)
    __arm_cp.110_53                          0x07fc7410   Number         4  lto-llvm-8ef5f6.o(.text.suotar_init)
    __arm_cp.110_54                          0x07fc7414   Number         4  lto-llvm-8ef5f6.o(.text.suotar_init)
    __arm_cp.110_55                          0x07fc7418   Number         4  lto-llvm-8ef5f6.o(.text.suotar_init)
    __arm_cp.110_56                          0x07fc741c   Number         4  lto-llvm-8ef5f6.o(.text.suotar_init)
    __arm_cp.110_57                          0x07fc7420   Number         4  lto-llvm-8ef5f6.o(.text.suotar_init)
    __arm_cp.110_58                          0x07fc7424   Number         4  lto-llvm-8ef5f6.o(.text.suotar_init)
    __arm_cp.110_59                          0x07fc7428   Number         4  lto-llvm-8ef5f6.o(.text.suotar_init)
    __arm_cp.110_60                          0x07fc742c   Number         4  lto-llvm-8ef5f6.o(.text.suotar_init)
    __arm_cp.110_61                          0x07fc7430   Number         4  lto-llvm-8ef5f6.o(.text.suotar_init)
    __arm_cp.110_62                          0x07fc7434   Number         4  lto-llvm-8ef5f6.o(.text.suotar_init)
    __arm_cp.110_63                          0x07fc7438   Number         4  lto-llvm-8ef5f6.o(.text.suotar_init)
    __arm_cp.110_64                          0x07fc743c   Number         4  lto-llvm-8ef5f6.o(.text.suotar_init)
    __arm_cp.110_65                          0x07fc7440   Number         4  lto-llvm-8ef5f6.o(.text.suotar_init)
    __arm_cp.110_66                          0x07fc7444   Number         4  lto-llvm-8ef5f6.o(.text.suotar_init)
    __arm_cp.110_67                          0x07fc7448   Number         4  lto-llvm-8ef5f6.o(.text.suotar_init)
    __arm_cp.110_68                          0x07fc744c   Number         4  lto-llvm-8ef5f6.o(.text.suotar_init)
    __arm_cp.110_69                          0x07fc7450   Number         4  lto-llvm-8ef5f6.o(.text.suotar_init)
    __arm_cp.110_70                          0x07fc7454   Number         4  lto-llvm-8ef5f6.o(.text.suotar_init)
    __arm_cp.110_71                          0x07fc7458   Number         4  lto-llvm-8ef5f6.o(.text.suotar_init)
    __arm_cp.110_72                          0x07fc745c   Number         4  lto-llvm-8ef5f6.o(.text.suotar_init)
    __arm_cp.110_73                          0x07fc7460   Number         4  lto-llvm-8ef5f6.o(.text.suotar_init)
    __arm_cp.110_74                          0x07fc7464   Number         4  lto-llvm-8ef5f6.o(.text.suotar_init)
    __arm_cp.110_75                          0x07fc7468   Number         4  lto-llvm-8ef5f6.o(.text.suotar_init)
    __arm_cp.110_76                          0x07fc746c   Number         4  lto-llvm-8ef5f6.o(.text.suotar_init)
    __arm_cp.110_77                          0x07fc7470   Number         4  lto-llvm-8ef5f6.o(.text.suotar_init)
    __arm_cp.110_78                          0x07fc7474   Number         4  lto-llvm-8ef5f6.o(.text.suotar_init)
    __arm_cp.110_79                          0x07fc7478   Number         4  lto-llvm-8ef5f6.o(.text.suotar_init)
    suotar_mem_info_update_req_handler       0x07fc747d   Thumb Code    48  lto-llvm-8ef5f6.o(.text.suotar_mem_info_update_req_handler)
    [Anonymous Symbol]                       0x07fc747c   Section        0  lto-llvm-8ef5f6.o(.text.suotar_mem_info_update_req_handler)
    __arm_cp.116_0                           0x07fc74ac   Number         4  lto-llvm-8ef5f6.o(.text.suotar_mem_info_update_req_handler)
    __arm_cp.116_1                           0x07fc74b0   Number         4  lto-llvm-8ef5f6.o(.text.suotar_mem_info_update_req_handler)
    suotar_patch_data_ind_handler            0x07fc74b5   Thumb Code   712  lto-llvm-8ef5f6.o(.text.suotar_patch_data_ind_handler)
    [Anonymous Symbol]                       0x07fc74b4   Section        0  lto-llvm-8ef5f6.o(.text.suotar_patch_data_ind_handler)
    __arm_cp.184_2                           0x07fc777c   Number         4  lto-llvm-8ef5f6.o(.text.suotar_patch_data_ind_handler)
    suotar_patch_len_ind_handler             0x07fc7781   Thumb Code    60  lto-llvm-8ef5f6.o(.text.suotar_patch_len_ind_handler)
    [Anonymous Symbol]                       0x07fc7780   Section        0  lto-llvm-8ef5f6.o(.text.suotar_patch_len_ind_handler)
    __arm_cp.183_0                           0x07fc77bc   Number         4  lto-llvm-8ef5f6.o(.text.suotar_patch_len_ind_handler)
    __arm_cp.183_1                           0x07fc77c0   Number         4  lto-llvm-8ef5f6.o(.text.suotar_patch_len_ind_handler)
    __arm_cp.183_2                           0x07fc77c4   Number         4  lto-llvm-8ef5f6.o(.text.suotar_patch_len_ind_handler)
    suotar_patch_mem_dev_ind_handler         0x07fc77c9   Thumb Code   300  lto-llvm-8ef5f6.o(.text.suotar_patch_mem_dev_ind_handler)
    [Anonymous Symbol]                       0x07fc77c8   Section        0  lto-llvm-8ef5f6.o(.text.suotar_patch_mem_dev_ind_handler)
    __arm_cp.181_0                           0x07fc78f4   Number         4  lto-llvm-8ef5f6.o(.text.suotar_patch_mem_dev_ind_handler)
    __arm_cp.181_1                           0x07fc78f8   Number         4  lto-llvm-8ef5f6.o(.text.suotar_patch_mem_dev_ind_handler)
    __arm_cp.181_2                           0x07fc78fc   Number         4  lto-llvm-8ef5f6.o(.text.suotar_patch_mem_dev_ind_handler)
    __arm_cp.181_3                           0x07fc7900   Number         4  lto-llvm-8ef5f6.o(.text.suotar_patch_mem_dev_ind_handler)
    suotar_send_mem_info_update_req          0x07fc7905   Thumb Code    32  lto-llvm-8ef5f6.o(.text.suotar_send_mem_info_update_req)
    [Anonymous Symbol]                       0x07fc7904   Section        0  lto-llvm-8ef5f6.o(.text.suotar_send_mem_info_update_req)
    __arm_cp.178_0                           0x07fc7924   Number         4  lto-llvm-8ef5f6.o(.text.suotar_send_mem_info_update_req)
    suotar_send_status_update_req            0x07fc7929   Thumb Code    32  lto-llvm-8ef5f6.o(.text.suotar_send_status_update_req)
    [Anonymous Symbol]                       0x07fc7928   Section        0  lto-llvm-8ef5f6.o(.text.suotar_send_status_update_req)
    __arm_cp.172_0                           0x07fc7948   Number         4  lto-llvm-8ef5f6.o(.text.suotar_send_status_update_req)
    suotar_status_update_req_handler         0x07fc794d   Thumb Code   120  lto-llvm-8ef5f6.o(.text.suotar_status_update_req_handler)
    [Anonymous Symbol]                       0x07fc794c   Section        0  lto-llvm-8ef5f6.o(.text.suotar_status_update_req_handler)
    __arm_cp.117_0                           0x07fc79c4   Number         4  lto-llvm-8ef5f6.o(.text.suotar_status_update_req_handler)
    __arm_cp.117_1                           0x07fc79c8   Number         4  lto-llvm-8ef5f6.o(.text.suotar_status_update_req_handler)
    systick_wait                             0x07fc79cd   Thumb Code    76  lto-llvm-8ef5f6.o(.text.systick_wait)
    [Anonymous Symbol]                       0x07fc79cc   Section        0  lto-llvm-8ef5f6.o(.text.systick_wait)
    __arm_cp.59_0                            0x07fc7a18   Number         4  lto-llvm-8ef5f6.o(.text.systick_wait)
    timer_canceled_handler                   0x07fc7a1d   Thumb Code     2  lto-llvm-8ef5f6.o(.text.timer_canceled_handler)
    [Anonymous Symbol]                       0x07fc7a1c   Section        0  lto-llvm-8ef5f6.o(.text.timer_canceled_handler)
    timer_modified_handler                   0x07fc7a1f   Thumb Code     2  lto-llvm-8ef5f6.o(.text.timer_modified_handler)
    [Anonymous Symbol]                       0x07fc7a1e   Section        0  lto-llvm-8ef5f6.o(.text.timer_modified_handler)
    transformTime                            0x07fc7a21   Thumb Code   256  lto-llvm-8ef5f6.o(.text.transformTime)
    [Anonymous Symbol]                       0x07fc7a20   Section        0  lto-llvm-8ef5f6.o(.text.transformTime)
    __arm_cp.216_0                           0x07fc7b20   Number         4  lto-llvm-8ef5f6.o(.text.transformTime)
    __arm_cp.216_1                           0x07fc7b24   Number         4  lto-llvm-8ef5f6.o(.text.transformTime)
    SEC_PER_YR                               0x07fc7b28   Number         0  lto-llvm-8ef5f6.o(.text.transformTime)
    __arm_cp.216_3                           0x07fc7b30   Number         4  lto-llvm-8ef5f6.o(.text.transformTime)
    __arm_cp.216_4                           0x07fc7b34   Number         4  lto-llvm-8ef5f6.o(.text.transformTime)
    __arm_cp.216_5                           0x07fc7b38   Number         4  lto-llvm-8ef5f6.o(.text.transformTime)
    day_of_week_get.t                        0x07fc7b3c   Number         0  lto-llvm-8ef5f6.o(.text.transformTime)
    __arm_cp.216_7                           0x07fc7b6c   Number         4  lto-llvm-8ef5f6.o(.text.transformTime)
    __arm_cp.216_8                           0x07fc7b70   Number         4  lto-llvm-8ef5f6.o(.text.transformTime)
    uart_callback                            0x07fc7b75   Thumb Code   140  lto-llvm-8ef5f6.o(.text.uart_callback)
    [Anonymous Symbol]                       0x07fc7b74   Section        0  lto-llvm-8ef5f6.o(.text.uart_callback)
    __arm_cp.8_0                             0x07fc7c00   Number         4  lto-llvm-8ef5f6.o(.text.uart_callback)
    __arm_cp.8_1                             0x07fc7c04   Number         4  lto-llvm-8ef5f6.o(.text.uart_callback)
    __arm_cp.8_2                             0x07fc7c08   Number         4  lto-llvm-8ef5f6.o(.text.uart_callback)
    __arm_cp.8_3                             0x07fc7c0c   Number         4  lto-llvm-8ef5f6.o(.text.uart_callback)
    uart_rx_isr                              0x07fc7c11   Thumb Code    12  lto-llvm-8ef5f6.o(.text.uart_rx_isr)
    [Anonymous Symbol]                       0x07fc7c10   Section        0  lto-llvm-8ef5f6.o(.text.uart_rx_isr)
    uart_send                                0x07fc7c1d   Thumb Code    80  lto-llvm-8ef5f6.o(.text.uart_send)
    [Anonymous Symbol]                       0x07fc7c1c   Section        0  lto-llvm-8ef5f6.o(.text.uart_send)
    __arm_cp.56_0                            0x07fc7c6c   Number         4  lto-llvm-8ef5f6.o(.text.uart_send)
    __arm_cp.56_1                            0x07fc7c70   Number         4  lto-llvm-8ef5f6.o(.text.uart_send)
    __arm_cp.56_2                            0x07fc7c74   Number         4  lto-llvm-8ef5f6.o(.text.uart_send)
    __arm_cp.56_3                            0x07fc7c78   Number         4  lto-llvm-8ef5f6.o(.text.uart_send)
    __arm_cp.56_4                            0x07fc7c7c   Number         4  lto-llvm-8ef5f6.o(.text.uart_send)
    __arm_cp.56_5                            0x07fc7c80   Number         4  lto-llvm-8ef5f6.o(.text.uart_send)
    user_app_adv_start                       0x07fc7c85   Thumb Code   300  lto-llvm-8ef5f6.o(.text.user_app_adv_start)
    [Anonymous Symbol]                       0x07fc7c84   Section        0  lto-llvm-8ef5f6.o(.text.user_app_adv_start)
    __arm_cp.201_0                           0x07fc7db0   Number         4  lto-llvm-8ef5f6.o(.text.user_app_adv_start)
    __arm_cp.201_1                           0x07fc7db4   Number         4  lto-llvm-8ef5f6.o(.text.user_app_adv_start)
    __arm_cp.201_2                           0x07fc7db8   Number         4  lto-llvm-8ef5f6.o(.text.user_app_adv_start)
    __arm_cp.201_3                           0x07fc7dbc   Number         4  lto-llvm-8ef5f6.o(.text.user_app_adv_start)
    __arm_cp.201_4                           0x07fc7dc0   Number         4  lto-llvm-8ef5f6.o(.text.user_app_adv_start)
    __arm_cp.201_5                           0x07fc7dc4   Number         4  lto-llvm-8ef5f6.o(.text.user_app_adv_start)
    __arm_cp.201_7                           0x07fc7dd8   Number         4  lto-llvm-8ef5f6.o(.text.user_app_adv_start)
    __arm_cp.201_8                           0x07fc7ddc   Number         4  lto-llvm-8ef5f6.o(.text.user_app_adv_start)
    user_catch_rest_hndl                     0x07fc7de1   Thumb Code   684  lto-llvm-8ef5f6.o(.text.user_catch_rest_hndl)
    [Anonymous Symbol]                       0x07fc7de0   Section        0  lto-llvm-8ef5f6.o(.text.user_catch_rest_hndl)
    __arm_cp.205_0                           0x07fc808c   Number         4  lto-llvm-8ef5f6.o(.text.user_catch_rest_hndl)
    __arm_cp.205_1                           0x07fc8090   Number         4  lto-llvm-8ef5f6.o(.text.user_catch_rest_hndl)
    __arm_cp.205_2                           0x07fc8094   Number         4  lto-llvm-8ef5f6.o(.text.user_catch_rest_hndl)
    __arm_cp.205_3                           0x07fc8098   Number         4  lto-llvm-8ef5f6.o(.text.user_catch_rest_hndl)
    __arm_cp.205_4                           0x07fc809c   Number         4  lto-llvm-8ef5f6.o(.text.user_catch_rest_hndl)
    __arm_cp.205_5                           0x07fc80a0   Number         4  lto-llvm-8ef5f6.o(.text.user_catch_rest_hndl)
    __arm_cp.205_8                           0x07fc80b4   Number         4  lto-llvm-8ef5f6.o(.text.user_catch_rest_hndl)
    __arm_cp.205_12                          0x07fc8128   Number         4  lto-llvm-8ef5f6.o(.text.user_catch_rest_hndl)
    __arm_cp.205_13                          0x07fc812c   Number         4  lto-llvm-8ef5f6.o(.text.user_catch_rest_hndl)
    __arm_cp.205_14                          0x07fc8130   Number         4  lto-llvm-8ef5f6.o(.text.user_catch_rest_hndl)
    __arm_cp.205_15                          0x07fc8134   Number         4  lto-llvm-8ef5f6.o(.text.user_catch_rest_hndl)
    __arm_cp.205_16                          0x07fc8138   Number         4  lto-llvm-8ef5f6.o(.text.user_catch_rest_hndl)
    __arm_cp.205_17                          0x07fc813c   Number         4  lto-llvm-8ef5f6.o(.text.user_catch_rest_hndl)
    __arm_cp.205_18                          0x07fc8140   Number         4  lto-llvm-8ef5f6.o(.text.user_catch_rest_hndl)
    __arm_cp.205_19                          0x07fc8144   Number         4  lto-llvm-8ef5f6.o(.text.user_catch_rest_hndl)
    __arm_cp.205_20                          0x07fc8148   Number         4  lto-llvm-8ef5f6.o(.text.user_catch_rest_hndl)
    __arm_cp.205_21                          0x07fc814c   Number         4  lto-llvm-8ef5f6.o(.text.user_catch_rest_hndl)
    __arm_cp.205_24                          0x07fc8164   Number         4  lto-llvm-8ef5f6.o(.text.user_catch_rest_hndl)
    __arm_cp.205_25                          0x07fc8168   Number         4  lto-llvm-8ef5f6.o(.text.user_catch_rest_hndl)
    __arm_cp.205_26                          0x07fc816c   Number         4  lto-llvm-8ef5f6.o(.text.user_catch_rest_hndl)
    i.__0sprintf$8                           0x07fc8170   Section        0  printf8.o(i.__0sprintf$8)
    i.__scatterload_copy                     0x07fc8198   Section       14  handlers.o(i.__scatterload_copy)
    i.__scatterload_null                     0x07fc81a6   Section        2  handlers.o(i.__scatterload_null)
    i.__scatterload_zeroinit                 0x07fc81a8   Section       14  handlers.o(i.__scatterload_zeroinit)
    _printf_core                             0x07fc81b9   Thumb Code  1020  printf8.o(i._printf_core)
    i._printf_core                           0x07fc81b8   Section        0  printf8.o(i._printf_core)
    _printf_post_padding                     0x07fc85e1   Thumb Code    32  printf8.o(i._printf_post_padding)
    i._printf_post_padding                   0x07fc85e0   Section        0  printf8.o(i._printf_post_padding)
    _printf_pre_padding                      0x07fc8601   Thumb Code    44  printf8.o(i._printf_pre_padding)
    i._printf_pre_padding                    0x07fc8600   Section        0  printf8.o(i._printf_pre_padding)
    _sputc                                   0x07fc862d   Thumb Code    10  printf8.o(i._sputc)
    i._sputc                                 0x07fc862c   Section        0  printf8.o(i._sputc)
    [Anonymous Symbol]                       0x07fc8638   Section        0  lto-llvm-8ef5f6.o(system_DA14xxx)
    __arm_cp.0_0                             0x07fc8670   Number         4  lto-llvm-8ef5f6.o(system_DA14xxx)
    __arm_cp.0_1                             0x07fc8674   Number         4  lto-llvm-8ef5f6.o(system_DA14xxx)
    custom_msg_handlers                      0x07fc8678   Data          56  patch.o(.constdata)
    .constdata                               0x07fc8678   Section      224  patch.o(.constdata)
    patch_new_table                          0x07fc86b0   Data          56  patch.o(.constdata)
    patch_orig_table                         0x07fc86e8   Data         112  patch.o(.constdata)
    nvds_data_storage                        0x07fc8758   Data          14  lto-llvm-8ef5f6.o(.rodata)
    [Anonymous Symbol]                       0x07fc8758   Section        0  lto-llvm-8ef5f6.o(.rodata)
    rom_func_addr_table_var                  0x07fc8768   Data         388  lto-llvm-8ef5f6.o(.rodata)
    rom_cfg_table_var                        0x07fc88ec   Data         188  lto-llvm-8ef5f6.o(.rodata)
    gap_cfg_user_var_struct                  0x07fc89a8   Data          90  lto-llvm-8ef5f6.o(.rodata)
    diss_att_db                              0x07fc8a88   Data         228  lto-llvm-8ef5f6.o(.rodata)
    diss_itf                                 0x07fc8b6c   Data          16  lto-llvm-8ef5f6.o(.rodata)
    diss_default_state                       0x07fc8b7c   Data          24  lto-llvm-8ef5f6.o(.rodata)
    diss_default_handler                     0x07fc8b94   Data           8  lto-llvm-8ef5f6.o(.rodata)
    custs1_itf                               0x07fc8b9c   Data          16  lto-llvm-8ef5f6.o(.rodata)
    custs1_default_state                     0x07fc8bac   Data          72  lto-llvm-8ef5f6.o(.rodata)
    custs1_default_handler                   0x07fc8bf4   Data           8  lto-llvm-8ef5f6.o(.rodata)
    suotar_itf                               0x07fc8bfc   Data          16  lto-llvm-8ef5f6.o(.rodata)
    suotar_default_state                     0x07fc8c0c   Data          32  lto-llvm-8ef5f6.o(.rodata)
    suotar_default_handler                   0x07fc8c2c   Data           8  lto-llvm-8ef5f6.o(.rodata)
    bas_att_db                               0x07fc8c34   Data          60  lto-llvm-8ef5f6.o(.rodata)
    bass_itf                                 0x07fc8c70   Data          16  lto-llvm-8ef5f6.o(.rodata)
    bass_default_state                       0x07fc8c80   Data          48  lto-llvm-8ef5f6.o(.rodata)
    bass_default_handler                     0x07fc8cb0   Data           8  lto-llvm-8ef5f6.o(.rodata)
    prf_funcs                                0x07fc8cb8   Data          48  lto-llvm-8ef5f6.o(.rodata)
    TASK_DESC_APP                            0x07fc8ce8   Data          16  lto-llvm-8ef5f6.o(.rodata)
    app_default_state                        0x07fc8cf8   Data           8  lto-llvm-8ef5f6.o(.rodata)
    app_default_handler                      0x07fc8d00   Data           8  lto-llvm-8ef5f6.o(.rodata)
    app_gap_process_handlers                 0x07fc8d08   Data         112  lto-llvm-8ef5f6.o(.rodata)
    app_sec_process_handlers                 0x07fc8d78   Data          56  lto-llvm-8ef5f6.o(.rodata)
    app_bass_process_handlers                0x07fc8db0   Data          48  lto-llvm-8ef5f6.o(.rodata)
    app_diss_process_handlers                0x07fc8de0   Data           8  lto-llvm-8ef5f6.o(.rodata)
    app_suotar_process_handlers              0x07fc8de8   Data          32  lto-llvm-8ef5f6.o(.rodata)
    app_process_handlers                     0x07fc8e08   Data          32  lto-llvm-8ef5f6.o(.rodata)
    user_security_conf                       0x07fc8e28   Data           7  lto-llvm-8ef5f6.o(.rodata)
    custs1_att_db                            0x07fc8e30   Data         280  lto-llvm-8ef5f6.o(.rodata)
    att_decl_svc                             0x07fc8f48   Data           2  lto-llvm-8ef5f6.o(.rodata)
    custs1_svc1                              0x07fc8f4a   Data          16  lto-llvm-8ef5f6.o(.rodata)
    att_decl_char                            0x07fc8f5a   Data           2  lto-llvm-8ef5f6.o(.rodata)
    SVC1_LED_STATE_UUID_128                  0x07fc8f5c   Data          16  lto-llvm-8ef5f6.o(.rodata)
    att_desc_cfg                             0x07fc8f6c   Data           2  lto-llvm-8ef5f6.o(.rodata)
    att_desc_user_desc                       0x07fc8f6e   Data           2  lto-llvm-8ef5f6.o(.rodata)
    custs1_svc2                              0x07fc8f70   Data          16  lto-llvm-8ef5f6.o(.rodata)
    SVC2_WRITE_VAL_1_UUID_128                0x07fc8f80   Data          16  lto-llvm-8ef5f6.o(.rodata)
    custs1_svc3                              0x07fc8f90   Data          16  lto-llvm-8ef5f6.o(.rodata)
    SVC3_READ_VAL_1_UUID_128                 0x07fc8fa0   Data          16  lto-llvm-8ef5f6.o(.rodata)
    SEC_PER_MT                               0x07fc8fb0   Data          96  lto-llvm-8ef5f6.o(.rodata)
    big_number_font                          0x07fc9010   Data       10000  lto-llvm-8ef5f6.o(.rodata)
    colon_font                               0x07fcb720   Data        1000  lto-llvm-8ef5f6.o(.rodata)
    EPD_ASCII_11X16                          0x07fcbb08   Data        3044  lto-llvm-8ef5f6.o(.rodata)
    EPD_FontUTF8_16x16                       0x07fcc6ec   Data        2314  lto-llvm-8ef5f6.o(.rodata)
    Lunar_MonthString                        0x07fccff6   Data          91  lto-llvm-8ef5f6.o(.rodata)
    Lunar_DateString                         0x07fcd051   Data         217  lto-llvm-8ef5f6.o(.rodata)
    WEEKCN                                   0x07fcd12a   Data          32  lto-llvm-8ef5f6.o(.rodata)
    lunar_month_days                         0x07fcd14c   Data         816  lto-llvm-8ef5f6.o(.rodata)
    solar_1_1                                0x07fcd47c   Data         816  lto-llvm-8ef5f6.o(.rodata)
    custs1_services                          0x07fcd7ac   Data           4  lto-llvm-8ef5f6.o(.rodata.cst4)
    [Anonymous Symbol]                       0x07fcd7ac   Section        0  lto-llvm-8ef5f6.o(.rodata.cst4)
    [Anonymous Symbol]                       0x07fcd7b0   Section        0  lto-llvm-8ef5f6.o(.rodata.str1.1)
    [Anonymous Symbol]                       0x07fcd834   Section        0  lto-llvm-8ef5f6.o(.rodata.str1.4)
    startup_sleep_delay                      0x07fcd870   Data           4  lto-llvm-8ef5f6.o(.data)
    [Anonymous Symbol]                       0x07fcd870   Section        0  lto-llvm-8ef5f6.o(.data)
    current_msg_buffer                       0x07fcd878   Data         256  lto-llvm-8ef5f6.o(.bss)
    [Anonymous Symbol]                       0x07fcd878   Section        0  lto-llvm-8ef5f6.o(.bss)
    trng_bits                                0x07fcd978   Data          16  lto-llvm-8ef5f6.o(.bss)
    spi_flash_cfg_env                        0x07fcd988   Data          12  lto-llvm-8ef5f6.o(.bss)
    cal_failed                               0x07fcd994   Data           1  lto-llvm-8ef5f6.o(.bss)
    Paint.1                                  0x07fcd998   Data           1  lto-llvm-8ef5f6.o(.bss)
    Paint.2                                  0x07fcd99c   Data           1  lto-llvm-8ef5f6.o(.bss)
    Paint.3                                  0x07fcd9a0   Data           1  lto-llvm-8ef5f6.o(.bss)
    Paint.4                                  0x07fcd9a4   Data           1  lto-llvm-8ef5f6.o(.bss)
    Paint.8                                  0x07fcd9a8   Data           1  lto-llvm-8ef5f6.o(.bss)
    Paint.10                                 0x07fcd9ac   Data           1  lto-llvm-8ef5f6.o(.bss)
    display.page_to_render                   0x07fcd9b0   Data           4  lto-llvm-8ef5f6.o(.bss)
    current_page_y_start                     0x07fcd9b4   Data           4  lto-llvm-8ef5f6.o(.bss)
    current_page_buffer_size                 0x07fcd9b8   Data           4  lto-llvm-8ef5f6.o(.bss)
    time_str                                 0x07fcd9bc   Data          10  lto-llvm-8ef5f6.o(.bss)
    date_str                                 0x07fcd9c6   Data          20  lto-llvm-8ef5f6.o(.bss)
    lunar_str                                0x07fcd9da   Data          30  lto-llvm-8ef5f6.o(.bss)
    STACK                                    0x07fcd9f8   Section     1536  startup_da14585_586.o(STACK)
    rwip_heap_non_ret                        0x07fcdff8   Data        1036  lto-llvm-8ef5f6.o(.bss.heap_mem_area_not_ret)
    [Anonymous Symbol]                       0x07fcdff8   Section        0  lto-llvm-8ef5f6.o(.bss.heap_mem_area_not_ret)
    prf_env                                  0x07fd1940   Data         768  lto-llvm-8ef5f6.o(.bss.retention_mem_area0)
    [Anonymous Symbol]                       0x07fd1940   Section        0  lto-llvm-8ef5f6.o(.bss.retention_mem_area0)
    set_dev_config_cmd                       0x07fd1c40   Data           4  lto-llvm-8ef5f6.o(.bss.retention_mem_area0)
    app_state                                0x07fd1c44   Data           1  lto-llvm-8ef5f6.o(.bss.retention_mem_area0)
    app_sec_env                              0x07fd1c46   Data         122  lto-llvm-8ef5f6.o(.bss.retention_mem_area0)
    suota_all_pd                             0x07fd1cc0   Data         512  lto-llvm-8ef5f6.o(.bss.retention_mem_area0)
    msg_util_callbacks                       0x07fd1ec0   Data          20  lto-llvm-8ef5f6.o(.bss.retention_mem_area0)
    gapc_bond_cfm_tk_exch                    0x07fd1ed4   Data           4  lto-llvm-8ef5f6.o(.bss.retention_mem_area0)
    modified_timer_callbacks                 0x07fd1ed8   Data          40  lto-llvm-8ef5f6.o(.bss.retention_mem_area0)
    dev_id                                   0x07fd1f00   Data           1  lto-llvm-8ef5f6.o(.bss.retention_mem_area0)
    page_buffer                              0x07fd1f01   Data        1600  lto-llvm-8ef5f6.o(.bss.retention_mem_area0)
    current_msg_offset                       0x07fd2544   Data           1  lto-llvm-8ef5f6.o(.bss.retention_mem_area0)
    defer_sending                            0x07fd2545   Data           1  lto-llvm-8ef5f6.o(.bss.retention_mem_area0)
    uart_busy                                0x07fd2546   Data           1  lto-llvm-8ef5f6.o(.bss.retention_mem_area0)
    sleep_md                                 0x07fd2547   Data           1  lto-llvm-8ef5f6.o(.bss.retention_mem_area0)
    sleep_pend                               0x07fd2548   Data           1  lto-llvm-8ef5f6.o(.bss.retention_mem_area0)
    sleep_cnt                                0x07fd2549   Data           1  lto-llvm-8ef5f6.o(.bss.retention_mem_area0)
    force_rf_cal                             0x07fd254a   Data           1  lto-llvm-8ef5f6.o(.bss.retention_mem_area0)
    sys_startup_flag                         0x07fd254b   Data           1  lto-llvm-8ef5f6.o(.bss.retention_mem_area0)
    spi_env.0.0                              0x07fd254c   Data           1  lto-llvm-8ef5f6.o(.bss.retention_mem_area0)
    spi_env.0.1                              0x07fd254d   Data           1  lto-llvm-8ef5f6.o(.bss.retention_mem_area0)
    twirq_set_max                            0x07fd2550   Data           1  lto-llvm-8ef5f6.o(.bss.retention_mem_area0)
    twirq_set_min                            0x07fd2554   Data           1  lto-llvm-8ef5f6.o(.bss.retention_mem_area0)
    arch_rwble_last_event                    0x07fd2555   Data           1  lto-llvm-8ef5f6.o(.bss.retention_mem_area0)
    set_boost_low_vbat1v_overhead            0x07fd2556   Data           1  lto-llvm-8ef5f6.o(.bss.retention_mem_area0)
    app_db_init_next.i                       0x07fd2557   Data           1  lto-llvm-8ef5f6.o(.bss.retention_mem_area0)
    app_db_init_next.j                       0x07fd2558   Data           1  lto-llvm-8ef5f6.o(.bss.retention_mem_area0)
    cur_batt_level                           0x07fd2559   Data           1  lto-llvm-8ef5f6.o(.bss.retention_mem_area0)
    bat_lvl_alert_used                       0x07fd255a   Data           1  lto-llvm-8ef5f6.o(.bss.retention_mem_area0)
    bat_led_port                             0x07fd255b   Data           1  lto-llvm-8ef5f6.o(.bss.retention_mem_area0)
    bat_led_pin                              0x07fd255c   Data           1  lto-llvm-8ef5f6.o(.bss.retention_mem_area0)
    bat_poll_timeout                         0x07fd255e   Data           1  lto-llvm-8ef5f6.o(.bss.retention_mem_area0)
    bat_led_state                            0x07fd255f   Data           1  lto-llvm-8ef5f6.o(.bss.retention_mem_area0)
    bat_connect_used                         0x07fd2560   Data           1  lto-llvm-8ef5f6.o(.bss.retention_mem_area0)
    bat_connect_led_state                    0x07fd2561   Data           1  lto-llvm-8ef5f6.o(.bss.retention_mem_area0)
    app_connection_idx                       0x07fd2562   Data           1  lto-llvm-8ef5f6.o(.bss.retention_mem_area0)
    app_param_update_request_timer_used      0x07fd2563   Data           1  lto-llvm-8ef5f6.o(.bss.retention_mem_area0)
    app_adv_data_update_timer_used           0x07fd2564   Data           1  lto-llvm-8ef5f6.o(.bss.retention_mem_area0)
    stored_adv_data_len                      0x07fd2565   Data           1  lto-llvm-8ef5f6.o(.bss.retention_mem_area0)
    stored_scan_rsp_data_len                 0x07fd2566   Data           1  lto-llvm-8ef5f6.o(.bss.retention_mem_area0)
    mnf_data_index                           0x07fd2567   Data           1  lto-llvm-8ef5f6.o(.bss.retention_mem_area0)
    time_offset                              0x07fd2568   Data           1  lto-llvm-8ef5f6.o(.bss.retention_mem_area0)
    step                                     0x07fd2569   Data           1  lto-llvm-8ef5f6.o(.bss.retention_mem_area0)
    suota_state.0                            0x07fd256c   Data           1  lto-llvm-8ef5f6.o(.bss.retention_mem_area0)
    suota_state.5                            0x07fd2570   Data           1  lto-llvm-8ef5f6.o(.bss.retention_mem_area0)
    suota_state.8                            0x07fd2574   Data           1  lto-llvm-8ef5f6.o(.bss.retention_mem_area0)
    suota_state.11                           0x07fd2578   Data           1  lto-llvm-8ef5f6.o(.bss.retention_mem_area0)
    uartn_env.1.9                            0x07fd257c   Data           1  lto-llvm-8ef5f6.o(.bss.retention_mem_area0)
    last_temp_count                          0x07fd257e   Data           2  lto-llvm-8ef5f6.o(.bss.retention_mem_area0)
    clk_freq_trim_reg_value                  0x07fd2580   Data           2  lto-llvm-8ef5f6.o(.bss.retention_mem_area0)
    iq_trim_bias_ctrl1_reg                   0x07fd2582   Data           2  lto-llvm-8ef5f6.o(.bss.retention_mem_area0)
    iq_trim_rf_mixer_ctrl1_reg               0x07fd2584   Data           2  lto-llvm-8ef5f6.o(.bss.retention_mem_area0)
    power_up.success_cnt                     0x07fd2586   Data           2  lto-llvm-8ef5f6.o(.bss.retention_mem_area0)
    timer_used_min                           0x07fd2588   Data           2  lto-llvm-8ef5f6.o(.bss.retention_mem_area0)
    uartn_env.1.1                            0x07fd258c   Data           2  lto-llvm-8ef5f6.o(.bss.retention_mem_area0)
    uartn_env.1.2                            0x07fd2590   Data           2  lto-llvm-8ef5f6.o(.bss.retention_mem_area0)
    printf_msg_list                          0x07fd2594   Data           4  lto-llvm-8ef5f6.o(.bss.retention_mem_area0)
    last_temp_time                           0x07fd2598   Data           4  lto-llvm-8ef5f6.o(.bss.retention_mem_area0)
    twirq_set                                0x07fd259c   Data           4  lto-llvm-8ef5f6.o(.bss.retention_mem_area0)
    ble_finetim_corr                         0x07fd25a0   Data           4  lto-llvm-8ef5f6.o(.bss.retention_mem_area0)
    retained_BLE_EM_BASE_REG                 0x07fd25a4   Data           4  lto-llvm-8ef5f6.o(.bss.retention_mem_area0)
    sleep_lp_cycles                          0x07fd25a8   Data           4  lto-llvm-8ef5f6.o(.bss.retention_mem_area0)
    adv_cmd                                  0x07fd25ac   Data           4  lto-llvm-8ef5f6.o(.bss.retention_mem_area0)
    param_update_cmd                         0x07fd25b0   Data           4  lto-llvm-8ef5f6.o(.bss.retention_mem_area0)
    gapc_bond_cfm_pairing_rsp                0x07fd25b4   Data           4  lto-llvm-8ef5f6.o(.bss.retention_mem_area0)
    gapc_bond_cfm_ltk_exch                   0x07fd25b8   Data           4  lto-llvm-8ef5f6.o(.bss.retention_mem_area0)
    current_unix_time                        0x07fd25bc   Data           4  lto-llvm-8ef5f6.o(.bss.retention_mem_area0)
    suota_state.1                            0x07fd25c0   Data           4  lto-llvm-8ef5f6.o(.bss.retention_mem_area0)
    suota_state.2                            0x07fd25c4   Data           4  lto-llvm-8ef5f6.o(.bss.retention_mem_area0)
    suota_state.3                            0x07fd25c8   Data           4  lto-llvm-8ef5f6.o(.bss.retention_mem_area0)
    suota_state.6                            0x07fd25cc   Data           4  lto-llvm-8ef5f6.o(.bss.retention_mem_area0)
    suota_state.7                            0x07fd25d0   Data           4  lto-llvm-8ef5f6.o(.bss.retention_mem_area0)
    suota_state.9                            0x07fd25d4   Data           4  lto-llvm-8ef5f6.o(.bss.retention_mem_area0)
    uartn_env.1.0                            0x07fd25d8   Data           4  lto-llvm-8ef5f6.o(.bss.retention_mem_area0)
    uartn_env.1.7                            0x07fd25dc   Data           4  lto-llvm-8ef5f6.o(.bss.retention_mem_area0)
    dev_bdaddr                               0x07fd25e0   Data           6  lto-llvm-8ef5f6.o(.bss.retention_mem_area0)
    mnf_data                                 0x07fd25e6   Data           6  lto-llvm-8ef5f6.o(.bss.retention_mem_area0)
    g_tm                                     0x07fd25ec   Data           8  lto-llvm-8ef5f6.o(.bss.retention_mem_area0)
    app_env                                  0x07fd25f4   Data          12  lto-llvm-8ef5f6.o(.bss.retention_mem_area0)
    imgheader                                0x07fd2600   Data          12  lto-llvm-8ef5f6.o(.bss.retention_mem_area0)
    app_prf_srv_perm                         0x07fd260c   Data          20  lto-llvm-8ef5f6.o(.bss.retention_mem_area0)
    stored_adv_data                          0x07fd2620   Data          31  lto-llvm-8ef5f6.o(.bss.retention_mem_area0)
    stored_scan_rsp_data                     0x07fd2640   Data          31  lto-llvm-8ef5f6.o(.bss.retention_mem_area0)
    device_info                              0x07fd2660   Data          36  lto-llvm-8ef5f6.o(.bss.retention_mem_area0)
    timer_callbacks                          0x07fd2684   Data          40  lto-llvm-8ef5f6.o(.bss.retention_mem_area0)
    rwip_heap_db_ret                         0x07fd26ac   Data        2060  lto-llvm-8ef5f6.o(.bss.heap_db_area)
    [Anonymous Symbol]                       0x07fd26ac   Section        0  lto-llvm-8ef5f6.o(.bss.heap_db_area)
    rwip_heap_env_ret                        0x07fd2eb8   Data         628  lto-llvm-8ef5f6.o(.bss.heap_env_area)
    [Anonymous Symbol]                       0x07fd2eb8   Section        0  lto-llvm-8ef5f6.o(.bss.heap_env_area)
    rwip_heap_msg_ret                        0x07fd312c   Data        1404  lto-llvm-8ef5f6.o(.bss.heap_msg_area)
    [Anonymous Symbol]                       0x07fd312c   Section        0  lto-llvm-8ef5f6.o(.bss.heap_msg_area)

    Global Symbols

    Symbol Name                              Value     Ov Type        Size  Object(Section)

    BuildAttributes$$THM_ISAv3M$S$PE$A:L22$X:L11$S22$IEEE1$IW$~IW$USESV6$~STKCKD$USESV7$~SHL$OTIME$ROPI$IEEEX$EBA8$MICROLIB$REQ8$PRES8$EABIv2 0x00000000   Number         0  anon$$obj.o ABSOLUTE
    _printf_a                                0x00000000   Number         0  printfstubs.o ABSOLUTE
    _printf_c                                0x00000000   Number         0  printfstubs.o ABSOLUTE
    _printf_charcount                        0x00000000   Number         0  printfstubs.o ABSOLUTE
    _printf_d                                0x00000000   Number         0  printfstubs.o ABSOLUTE
    _printf_e                                0x00000000   Number         0  printfstubs.o ABSOLUTE
    _printf_f                                0x00000000   Number         0  printfstubs.o ABSOLUTE
    _printf_flags                            0x00000000   Number         0  printfstubs.o ABSOLUTE
    _printf_fp_dec                           0x00000000   Number         0  printfstubs.o ABSOLUTE
    _printf_fp_hex                           0x00000000   Number         0  printfstubs.o ABSOLUTE
    _printf_g                                0x00000000   Number         0  printfstubs.o ABSOLUTE
    _printf_i                                0x00000000   Number         0  printfstubs.o ABSOLUTE
    _printf_int_dec                          0x00000000   Number         0  printfstubs.o ABSOLUTE
    _printf_l                                0x00000000   Number         0  printfstubs.o ABSOLUTE
    _printf_lc                               0x00000000   Number         0  printfstubs.o ABSOLUTE
    _printf_ll                               0x00000000   Number         0  printfstubs.o ABSOLUTE
    _printf_lld                              0x00000000   Number         0  printfstubs.o ABSOLUTE
    _printf_lli                              0x00000000   Number         0  printfstubs.o ABSOLUTE
    _printf_llo                              0x00000000   Number         0  printfstubs.o ABSOLUTE
    _printf_llu                              0x00000000   Number         0  printfstubs.o ABSOLUTE
    _printf_llx                              0x00000000   Number         0  printfstubs.o ABSOLUTE
    _printf_longlong_dec                     0x00000000   Number         0  printfstubs.o ABSOLUTE
    _printf_longlong_hex                     0x00000000   Number         0  printfstubs.o ABSOLUTE
    _printf_longlong_oct                     0x00000000   Number         0  printfstubs.o ABSOLUTE
    _printf_ls                               0x00000000   Number         0  printfstubs.o ABSOLUTE
    _printf_mbtowc                           0x00000000   Number         0  printfstubs.o ABSOLUTE
    _printf_n                                0x00000000   Number         0  printfstubs.o ABSOLUTE
    _printf_o                                0x00000000   Number         0  printfstubs.o ABSOLUTE
    _printf_p                                0x00000000   Number         0  printfstubs.o ABSOLUTE
    _printf_percent                          0x00000000   Number         0  printfstubs.o ABSOLUTE
    _printf_pre_padding                      0x00000000   Number         0  printfstubs.o ABSOLUTE
    _printf_return_value                     0x00000000   Number         0  printfstubs.o ABSOLUTE
    _printf_s                                0x00000000   Number         0  printfstubs.o ABSOLUTE
    _printf_sizespec                         0x00000000   Number         0  printfstubs.o ABSOLUTE
    _printf_str                              0x00000000   Number         0  printfstubs.o ABSOLUTE
    _printf_truncate_signed                  0x00000000   Number         0  printfstubs.o ABSOLUTE
    _printf_truncate_unsigned                0x00000000   Number         0  printfstubs.o ABSOLUTE
    _printf_u                                0x00000000   Number         0  printfstubs.o ABSOLUTE
    _printf_wc                               0x00000000   Number         0  printfstubs.o ABSOLUTE
    _printf_wctomb                           0x00000000   Number         0  printfstubs.o ABSOLUTE
    _printf_widthprec                        0x00000000   Number         0  printfstubs.o ABSOLUTE
    _printf_x                                0x00000000   Number         0  printfstubs.o ABSOLUTE
    __cpp_initialize__aeabi_                  - Undefined Weak Reference
    __cxa_finalize                            - Undefined Weak Reference
    __decompress                              - Undefined Weak Reference
    _clock_init                               - Undefined Weak Reference
    _microlib_exit                            - Undefined Weak Reference
    reset_indication                          - Undefined Weak Reference
    __Vectors_Size                           0x000000a0   Number         0  startup_da14585_586.o ABSOLUTE
    Image$$ER_IROM3$$Length                  0x0000d364   Number         0  anon$$obj.o ABSOLUTE
    uECC_vli_add                             0x07f02001   Thumb Code     0  da14585_symbols.txt ABSOLUTE
    uECC_vli_sub                             0x07f02019   Thumb Code     0  da14585_symbols.txt ABSOLUTE
    uECC_vli_mult                            0x07f02035   Thumb Code     0  da14585_symbols.txt ABSOLUTE
    set_system_clocks                        0x07f02151   Thumb Code     0  da14585_symbols.txt ABSOLUTE
    set_peripheral_clocks                    0x07f0216d   Thumb Code     0  da14585_symbols.txt ABSOLUTE
    rf_workaround_init                       0x07f021ad   Thumb Code     0  da14585_symbols.txt ABSOLUTE
    get_stack_usage                          0x07f021af   Thumb Code     0  da14585_symbols.txt ABSOLUTE
    rwip_eif_get_func                        0x07f021ed   Thumb Code     0  da14585_symbols.txt ABSOLUTE
    rwip_set_em_base                         0x07f021fd   Thumb Code     0  da14585_symbols.txt ABSOLUTE
    platform_initialization                  0x07f02203   Thumb Code     0  da14585_symbols.txt ABSOLUTE
    ble_init                                 0x07f022b5   Thumb Code     0  da14585_symbols.txt ABSOLUTE
    ble_regs_push                            0x07f02327   Thumb Code     0  da14585_symbols.txt ABSOLUTE
    ble_regs_pop                             0x07f0237f   Thumb Code     0  da14585_symbols.txt ABSOLUTE
    platform_sleep                           0x07f023d5   Thumb Code     0  da14585_symbols.txt ABSOLUTE
    rf_reinit                                0x07f026b9   Thumb Code     0  da14585_symbols.txt ABSOLUTE
    smpc_check_param                         0x07f026c1   Thumb Code     0  da14585_symbols.txt ABSOLUTE
    smpc_pdu_recv                            0x07f026cb   Thumb Code     0  da14585_symbols.txt ABSOLUTE
    lld_sleep_compensate                     0x07f026d5   Thumb Code     0  da14585_symbols.txt ABSOLUTE
    lld_sleep_init                           0x07f026df   Thumb Code     0  da14585_symbols.txt ABSOLUTE
    lld_sleep_us_2_lpcycles                  0x07f026e9   Thumb Code     0  da14585_symbols.txt ABSOLUTE
    lld_sleep_lpcycles_2_us                  0x07f026f3   Thumb Code     0  da14585_symbols.txt ABSOLUTE
    uart_flow_off                            0x07f026fd   Thumb Code     0  da14585_symbols.txt ABSOLUTE
    uart_finish_transfers                    0x07f02705   Thumb Code     0  da14585_symbols.txt ABSOLUTE
    uart_read                                0x07f0270d   Thumb Code     0  da14585_symbols.txt ABSOLUTE
    uart_write                               0x07f02715   Thumb Code     0  da14585_symbols.txt ABSOLUTE
    UART_Handler                             0x07f0271d   Thumb Code     0  da14585_symbols.txt ABSOLUTE
    uart_init                                0x07f02725   Thumb Code     0  da14585_symbols.txt ABSOLUTE
    uart_flow_on                             0x07f0272d   Thumb Code     0  da14585_symbols.txt ABSOLUTE
    gtl_init                                 0x07f02735   Thumb Code     0  da14585_symbols.txt ABSOLUTE
    gtl_eif_init                             0x07f0273d   Thumb Code     0  da14585_symbols.txt ABSOLUTE
    gtl_eif_read_start                       0x07f02745   Thumb Code     0  da14585_symbols.txt ABSOLUTE
    gtl_eif_read_hdr                         0x07f0274d   Thumb Code     0  da14585_symbols.txt ABSOLUTE
    gtl_eif_read_payl                        0x07f02755   Thumb Code     0  da14585_symbols.txt ABSOLUTE
    gtl_eif_tx_done                          0x07f0275d   Thumb Code     0  da14585_symbols.txt ABSOLUTE
    gtl_eif_rx_done                          0x07f02765   Thumb Code     0  da14585_symbols.txt ABSOLUTE
    h4tl_init                                0x07f0276d   Thumb Code     0  da14585_symbols.txt ABSOLUTE
    h4tl_read_start                          0x07f02775   Thumb Code     0  da14585_symbols.txt ABSOLUTE
    h4tl_read_hdr                            0x07f0277d   Thumb Code     0  da14585_symbols.txt ABSOLUTE
    h4tl_read_payl                           0x07f02785   Thumb Code     0  da14585_symbols.txt ABSOLUTE
    h4tl_read_next_out_of_sync               0x07f0278d   Thumb Code     0  da14585_symbols.txt ABSOLUTE
    h4tl_out_of_sync                         0x07f02795   Thumb Code     0  da14585_symbols.txt ABSOLUTE
    h4tl_tx_done                             0x07f0279d   Thumb Code     0  da14585_symbols.txt ABSOLUTE
    h4tl_rx_done                             0x07f027a5   Thumb Code     0  da14585_symbols.txt ABSOLUTE
    ke_task_init                             0x07f027ad   Thumb Code     0  da14585_symbols.txt ABSOLUTE
    ke_timer_init                            0x07f027b5   Thumb Code     0  da14585_symbols.txt ABSOLUTE
    llm_encryption_done                      0x07f027bd   Thumb Code     0  da14585_symbols.txt ABSOLUTE
    nvds_get                                 0x07f027c5   Thumb Code     0  da14585_symbols.txt ABSOLUTE
    nvds_del                                 0x07f027cd   Thumb Code     0  da14585_symbols.txt ABSOLUTE
    nvds_put                                 0x07f027d5   Thumb Code     0  da14585_symbols.txt ABSOLUTE
    rwip_eif_get                             0x07f027dd   Thumb Code     0  da14585_symbols.txt ABSOLUTE
    platform_reset                           0x07f027e5   Thumb Code     0  da14585_symbols.txt ABSOLUTE
    lld_test_stop                            0x07f027ef   Thumb Code     0  da14585_symbols.txt ABSOLUTE
    lld_test_mode_tx                         0x07f027f9   Thumb Code     0  da14585_symbols.txt ABSOLUTE
    lld_test_mode_rx                         0x07f02803   Thumb Code     0  da14585_symbols.txt ABSOLUTE
    prf_init                                 0x07f0280d   Thumb Code     0  da14585_symbols.txt ABSOLUTE
    prf_add_profile                          0x07f02817   Thumb Code     0  da14585_symbols.txt ABSOLUTE
    prf_create                               0x07f02821   Thumb Code     0  da14585_symbols.txt ABSOLUTE
    prf_cleanup                              0x07f0282b   Thumb Code     0  da14585_symbols.txt ABSOLUTE
    prf_get_id_from_task                     0x07f02835   Thumb Code     0  da14585_symbols.txt ABSOLUTE
    prf_get_task_from_id                     0x07f0283f   Thumb Code     0  da14585_symbols.txt ABSOLUTE
    nvds_init                                0x07f02849   Thumb Code     0  da14585_symbols.txt ABSOLUTE
    SetSystemVars                            0x07f02851   Thumb Code     0  da14585_symbols.txt ABSOLUTE
    dbg_init                                 0x07f0285b   Thumb Code     0  da14585_symbols.txt ABSOLUTE
    dbg_platform_reset_complete              0x07f02865   Thumb Code     0  da14585_symbols.txt ABSOLUTE
    hci_rd_local_supp_feats_cmd_handler      0x07f0286f   Thumb Code     0  da14585_symbols.txt ABSOLUTE
    l2cc_pdu_pack                            0x07f0287f   Thumb Code     0  da14585_symbols.txt ABSOLUTE
    l2cc_pdu_unpack                          0x07f02895   Thumb Code     0  da14585_symbols.txt ABSOLUTE
    l2c_send_lecb_message                    0x07f028ad   Thumb Code     0  da14585_symbols.txt ABSOLUTE
    l2c_process_sdu                          0x07f028b7   Thumb Code     0  da14585_symbols.txt ABSOLUTE
    l2cc_pdu_recv_ind_handler                0x07f028c1   Thumb Code     0  da14585_symbols.txt ABSOLUTE
    gapc_lecb_connect_cfm_handler            0x07f028d1   Thumb Code     0  da14585_symbols.txt ABSOLUTE
    atts_l2cc_pdu_recv_handler               0x07f028e1   Thumb Code     0  da14585_symbols.txt ABSOLUTE
    attc_l2cc_pdu_recv_handler               0x07f028eb   Thumb Code     0  da14585_symbols.txt ABSOLUTE
    crypto_init                              0x07f028f5   Thumb Code     0  da14585_symbols.txt ABSOLUTE
    llm_le_adv_report_ind                    0x07f028ff   Thumb Code     0  da14585_symbols.txt ABSOLUTE
    PK_PointMult                             0x07f02909   Thumb Code     0  da14585_symbols.txt ABSOLUTE
    llm_p256_start                           0x07f02913   Thumb Code     0  da14585_symbols.txt ABSOLUTE
    llm_create_p256_key                      0x07f0291d   Thumb Code     0  da14585_symbols.txt ABSOLUTE
    llm_p256_req_handler                     0x07f02929   Thumb Code     0  da14585_symbols.txt ABSOLUTE
    llc_le_length_effective                  0x07f0293b   Thumb Code     0  da14585_symbols.txt ABSOLUTE
    llc_le_length_conn_init                  0x07f02947   Thumb Code     0  da14585_symbols.txt ABSOLUTE
    lld_data_tx_prog                         0x07f02953   Thumb Code     0  da14585_symbols.txt ABSOLUTE
    lld_data_tx_check                        0x07f0295f   Thumb Code     0  da14585_symbols.txt ABSOLUTE
    llc_pdu_send                             0x07f0296b   Thumb Code     0  da14585_symbols.txt ABSOLUTE
    dia_rand                                 0x07f02977   Thumb Code     0  da14585_symbols.txt ABSOLUTE
    dia_srand                                0x07f02983   Thumb Code     0  da14585_symbols.txt ABSOLUTE
    llc_data_notif                           0x07f0298f   Thumb Code     0  da14585_symbols.txt ABSOLUTE
    ba431_get_rand                           0x07f029a9   Thumb Code     0  da14585_symbols.txt ABSOLUTE
    modulationGainCalibration                0x07f029b5   Thumb Code     0  da14585_symbols.txt ABSOLUTE
    DCoffsetCalibration                      0x07f029c1   Thumb Code     0  da14585_symbols.txt ABSOLUTE
    PllLF_IFF_MIX_CapCalibration             0x07f029cd   Thumb Code     0  da14585_symbols.txt ABSOLUTE
    smpc_public_key_exchange_start           0x07f029d9   Thumb Code     0  da14585_symbols.txt ABSOLUTE
    smpc_dhkey_calc_ind                      0x07f029e5   Thumb Code     0  da14585_symbols.txt ABSOLUTE
    smpm_ecdh_key_create                     0x07f029f1   Thumb Code     0  da14585_symbols.txt ABSOLUTE
    co_buf_init                              0x07f02a01   Thumb Code     0  da14585_symbols.txt ABSOLUTE
    co_buf_rx_free                           0x07f02ac7   Thumb Code     0  da14585_symbols.txt ABSOLUTE
    co_buf_rx_buffer_get                     0x07f02ae1   Thumb Code     0  da14585_symbols.txt ABSOLUTE
    co_buf_tx_buffer_get                     0x07f02aeb   Thumb Code     0  da14585_symbols.txt ABSOLUTE
    co_list_init                             0x07f02b15   Thumb Code     0  da14585_symbols.txt ABSOLUTE
    co_list_pop_front                        0x07f02b25   Thumb Code     0  da14585_symbols.txt ABSOLUTE
    co_list_flush                            0x07f02b47   Thumb Code     0  da14585_symbols.txt ABSOLUTE
    co_list_push_back                        0x07f02b5d   Thumb Code     0  da14585_symbols.txt ABSOLUTE
    co_list_pool_init                        0x07f02b81   Thumb Code     0  da14585_symbols.txt ABSOLUTE
    co_list_push_front                       0x07f02be9   Thumb Code     0  da14585_symbols.txt ABSOLUTE
    co_list_extract                          0x07f02c05   Thumb Code     0  da14585_symbols.txt ABSOLUTE
    co_list_find                             0x07f02c55   Thumb Code     0  da14585_symbols.txt ABSOLUTE
    co_list_merge                            0x07f02c6b   Thumb Code     0  da14585_symbols.txt ABSOLUTE
    co_list_insert_before                    0x07f02c87   Thumb Code     0  da14585_symbols.txt ABSOLUTE
    co_list_insert_after                     0x07f02cbf   Thumb Code     0  da14585_symbols.txt ABSOLUTE
    co_list_size                             0x07f02cfb   Thumb Code     0  da14585_symbols.txt ABSOLUTE
    co_bdaddr_compare                        0x07f02d0f   Thumb Code     0  da14585_symbols.txt ABSOLUTE
    llc_init                                 0x07f02d2d   Thumb Code     0  da14585_symbols.txt ABSOLUTE
    llc_stop                                 0x07f02d57   Thumb Code     0  da14585_symbols.txt ABSOLUTE
    llc_reset                                0x07f02d9d   Thumb Code     0  da14585_symbols.txt ABSOLUTE
    llc_le_length_effective_func             0x07f02dbf   Thumb Code     0  da14585_symbols.txt ABSOLUTE
    llc_le_length_conn_init_func             0x07f02e53   Thumb Code     0  da14585_symbols.txt ABSOLUTE
    llc_le_enh_con_cmp_evt_send              0x07f02eaf   Thumb Code     0  da14585_symbols.txt ABSOLUTE
    llc_le_con_cmp_evt_send                  0x07f02fc9   Thumb Code     0  da14585_symbols.txt ABSOLUTE
    llc_start                                0x07f03075   Thumb Code     0  da14585_symbols.txt ABSOLUTE
    llc_discon_event_complete_send           0x07f031e7   Thumb Code     0  da14585_symbols.txt ABSOLUTE
    llc_con_update_complete_send             0x07f03207   Thumb Code     0  da14585_symbols.txt ABSOLUTE
    llc_ltk_req_send                         0x07f03241   Thumb Code     0  da14585_symbols.txt ABSOLUTE
    llc_feats_rd_event_send                  0x07f03279   Thumb Code     0  da14585_symbols.txt ABSOLUTE
    llc_version_rd_event_send                0x07f032b5   Thumb Code     0  da14585_symbols.txt ABSOLUTE
    llc_common_cmd_complete_send             0x07f032e5   Thumb Code     0  da14585_symbols.txt ABSOLUTE
    llc_common_cmd_status_send               0x07f03303   Thumb Code     0  da14585_symbols.txt ABSOLUTE
    llc_common_flush_occurred_send           0x07f0331f   Thumb Code     0  da14585_symbols.txt ABSOLUTE
    llc_common_enc_key_ref_comp_evt_send     0x07f03337   Thumb Code     0  da14585_symbols.txt ABSOLUTE
    llc_common_enc_change_evt_send           0x07f03353   Thumb Code     0  da14585_symbols.txt ABSOLUTE
    llc_common_nb_of_pkt_comp_evt_send       0x07f033b9   Thumb Code     0  da14585_symbols.txt ABSOLUTE
    llc_con_update_ind                       0x07f033d9   Thumb Code     0  da14585_symbols.txt ABSOLUTE
    llc_lsto_con_update                      0x07f03453   Thumb Code     0  da14585_symbols.txt ABSOLUTE
    llc_map_update_ind                       0x07f03485   Thumb Code     0  da14585_symbols.txt ABSOLUTE
    llc_chnl_map_req_send                    0x07f03537   Thumb Code     0  da14585_symbols.txt ABSOLUTE
    llc_add_bad_chnl                         0x07f03553   Thumb Code     0  da14585_symbols.txt ABSOLUTE
    llc_pdu_send_func                        0x07f035f5   Thumb Code     0  da14585_symbols.txt ABSOLUTE
    llc_version_ind_pdu_send                 0x07f03665   Thumb Code     0  da14585_symbols.txt ABSOLUTE
    llc_ch_map_update_pdu_send               0x07f036b5   Thumb Code     0  da14585_symbols.txt ABSOLUTE
    llc_pause_enc_req_pdu_send               0x07f03705   Thumb Code     0  da14585_symbols.txt ABSOLUTE
    llc_pause_enc_rsp_pdu_send               0x07f03751   Thumb Code     0  da14585_symbols.txt ABSOLUTE
    llc_enc_req_pdu_send                     0x07f037b5   Thumb Code     0  da14585_symbols.txt ABSOLUTE
    llc_enc_rsp_pdu_send                     0x07f0387f   Thumb Code     0  da14585_symbols.txt ABSOLUTE
    llc_start_enc_rsp_pdu_send               0x07f0391b   Thumb Code     0  da14585_symbols.txt ABSOLUTE
    llc_reject_ind_pdu_send                  0x07f03971   Thumb Code     0  da14585_symbols.txt ABSOLUTE
    llc_con_update_pdu_send                  0x07f03a13   Thumb Code     0  da14585_symbols.txt ABSOLUTE
    llc_con_param_req_pdu_send               0x07f03a69   Thumb Code     0  da14585_symbols.txt ABSOLUTE
    llc_con_param_rsp_pdu_send               0x07f03af7   Thumb Code     0  da14585_symbols.txt ABSOLUTE
    llc_feats_req_pdu_send                   0x07f03b85   Thumb Code     0  da14585_symbols.txt ABSOLUTE
    llc_start_enc_req_pdu_send               0x07f03be5   Thumb Code     0  da14585_symbols.txt ABSOLUTE
    llc_terminate_ind_pdu_send               0x07f03c8b   Thumb Code     0  da14585_symbols.txt ABSOLUTE
    llc_unknown_rsp_send_pdu                 0x07f03cff   Thumb Code     0  da14585_symbols.txt ABSOLUTE
    llc_length_req_pdu_send                  0x07f03d33   Thumb Code     0  da14585_symbols.txt ABSOLUTE
    llc_length_rsp_pdu_send                  0x07f03de9   Thumb Code     0  da14585_symbols.txt ABSOLUTE
    llc_length_ind                           0x07f03e6f   Thumb Code     0  da14585_symbols.txt ABSOLUTE
    llc_ping_req_pdu_send                    0x07f03efb   Thumb Code     0  da14585_symbols.txt ABSOLUTE
    llc_ping_rsp_pdu_send                    0x07f03f2b   Thumb Code     0  da14585_symbols.txt ABSOLUTE
    llc_feats_req_ind                        0x07f03f5b   Thumb Code     0  da14585_symbols.txt ABSOLUTE
    llc_feats_rsp_ind                        0x07f03fbd   Thumb Code     0  da14585_symbols.txt ABSOLUTE
    llc_vers_ind_ind                         0x07f04015   Thumb Code     0  da14585_symbols.txt ABSOLUTE
    llc_terminate_ind                        0x07f04099   Thumb Code     0  da14585_symbols.txt ABSOLUTE
    llc_pause_enc_req_ind                    0x07f040d5   Thumb Code     0  da14585_symbols.txt ABSOLUTE
    llc_pause_enc_rsp_ind                    0x07f04105   Thumb Code     0  da14585_symbols.txt ABSOLUTE
    llc_enc_req_ind                          0x07f04179   Thumb Code     0  da14585_symbols.txt ABSOLUTE
    llc_enc_rsp_ind                          0x07f0421d   Thumb Code     0  da14585_symbols.txt ABSOLUTE
    llc_start_enc_req_ind                    0x07f042e1   Thumb Code     0  da14585_symbols.txt ABSOLUTE
    llc_start_enc_rsp_ind                    0x07f04343   Thumb Code     0  da14585_symbols.txt ABSOLUTE
    llc_cntl_rcv                             0x07f043cb   Thumb Code     0  da14585_symbols.txt ABSOLUTE
    llcp_con_param_req_pdu_unpk              0x07f04457   Thumb Code     0  da14585_symbols.txt ABSOLUTE
    llcp_con_param_rsp_pdu_unpk              0x07f044cf   Thumb Code     0  da14585_symbols.txt ABSOLUTE
    llc_con_update_req_ind                   0x07f04547   Thumb Code     0  da14585_symbols.txt ABSOLUTE
    llc_ch_map_req_ind                       0x07f045a1   Thumb Code     0  da14585_symbols.txt ABSOLUTE
    llc_data_rcv                             0x07f04615   Thumb Code     0  da14585_symbols.txt ABSOLUTE
    llcp_length_req_handler                  0x07f05fe3   Thumb Code     0  da14585_symbols.txt ABSOLUTE
    llc_util_get_free_conhdl                 0x07f063c5   Thumb Code     0  da14585_symbols.txt ABSOLUTE
    llc_util_dicon_procedure                 0x07f063f5   Thumb Code     0  da14585_symbols.txt ABSOLUTE
    llc_util_gen_skdx                        0x07f06457   Thumb Code     0  da14585_symbols.txt ABSOLUTE
    llc_util_update_channel_map              0x07f0646b   Thumb Code     0  da14585_symbols.txt ABSOLUTE
    llc_util_set_llcp_discard_enable         0x07f0647d   Thumb Code     0  da14585_symbols.txt ABSOLUTE
    llc_util_set_auth_payl_to_margin         0x07f06495   Thumb Code     0  da14585_symbols.txt ABSOLUTE
    llc_data_notif_func                      0x07f064bd   Thumb Code     0  da14585_symbols.txt ABSOLUTE
    lld_init                                 0x07f065c9   Thumb Code     0  da14585_symbols.txt ABSOLUTE
    lld_reset                                0x07f06717   Thumb Code     0  da14585_symbols.txt ABSOLUTE
    lld_adv_start                            0x07f06765   Thumb Code     0  da14585_symbols.txt ABSOLUTE
    lld_adv_stop                             0x07f068b3   Thumb Code     0  da14585_symbols.txt ABSOLUTE
    lld_scan_start                           0x07f068d9   Thumb Code     0  da14585_symbols.txt ABSOLUTE
    lld_scan_stop                            0x07f06a33   Thumb Code     0  da14585_symbols.txt ABSOLUTE
    lld_con_start                            0x07f06a6b   Thumb Code     0  da14585_symbols.txt ABSOLUTE
    lld_move_to_master                       0x07f06de3   Thumb Code     0  da14585_symbols.txt ABSOLUTE
    lld_con_update_req                       0x07f06e79   Thumb Code     0  da14585_symbols.txt ABSOLUTE
    lld_con_update_after_param_req           0x07f06ef3   Thumb Code     0  da14585_symbols.txt ABSOLUTE
    lld_con_param_rsp                        0x07f070d9   Thumb Code     0  da14585_symbols.txt ABSOLUTE
    lld_con_param_req                        0x07f071d3   Thumb Code     0  da14585_symbols.txt ABSOLUTE
    lld_con_stop                             0x07f072a5   Thumb Code     0  da14585_symbols.txt ABSOLUTE
    lld_get_mode                             0x07f072fb   Thumb Code     0  da14585_symbols.txt ABSOLUTE
    lld_move_to_slave                        0x07f0731f   Thumb Code     0  da14585_symbols.txt ABSOLUTE
    lld_ch_map_ind                           0x07f0749f   Thumb Code     0  da14585_symbols.txt ABSOLUTE
    lld_con_update_ind                       0x07f074b1   Thumb Code     0  da14585_symbols.txt ABSOLUTE
    lld_crypt_isr                            0x07f074bf   Thumb Code     0  da14585_symbols.txt ABSOLUTE
    lld_test_mode_tx_func                    0x07f074c9   Thumb Code     0  da14585_symbols.txt ABSOLUTE
    lld_test_mode_rx_func                    0x07f0756b   Thumb Code     0  da14585_symbols.txt ABSOLUTE
    lld_test_stop_func                       0x07f075ff   Thumb Code     0  da14585_symbols.txt ABSOLUTE
    lld_data_rx_check                        0x07f076bd   Thumb Code     0  da14585_symbols.txt ABSOLUTE
    lld_data_rx_flush                        0x07f07701   Thumb Code     0  da14585_symbols.txt ABSOLUTE
    lld_data_tx_check_func                   0x07f07725   Thumb Code     0  da14585_symbols.txt ABSOLUTE
    lld_data_tx_loop                         0x07f077cb   Thumb Code     0  da14585_symbols.txt ABSOLUTE
    lld_data_tx_push                         0x07f077f9   Thumb Code     0  da14585_symbols.txt ABSOLUTE
    lld_data_tx_prog_func                    0x07f0785b   Thumb Code     0  da14585_symbols.txt ABSOLUTE
    lld_data_tx_flush                        0x07f07991   Thumb Code     0  da14585_symbols.txt ABSOLUTE
    lld_evt_drift_compute                    0x07f07aa9   Thumb Code     0  da14585_symbols.txt ABSOLUTE
    lld_evt_elt_delete                       0x07f07b87   Thumb Code     0  da14585_symbols.txt ABSOLUTE
    lld_evt_channel_next                     0x07f07cc9   Thumb Code     0  da14585_symbols.txt ABSOLUTE
    lld_evt_deffered_elt_handler             0x07f08181   Thumb Code     0  da14585_symbols.txt ABSOLUTE
    lld_evt_init                             0x07f08253   Thumb Code     0  da14585_symbols.txt ABSOLUTE
    lld_evt_init_evt                         0x07f082c9   Thumb Code     0  da14585_symbols.txt ABSOLUTE
    lld_evt_elt_insert                       0x07f082e7   Thumb Code     0  da14585_symbols.txt ABSOLUTE
    lld_evt_conhdl2elt                       0x07f08311   Thumb Code     0  da14585_symbols.txt ABSOLUTE
    lld_evt_schedule_next                    0x07f0832d   Thumb Code     0  da14585_symbols.txt ABSOLUTE
    lld_evt_schedule                         0x07f08425   Thumb Code     0  da14585_symbols.txt ABSOLUTE
    lld_evt_prevent_stop                     0x07f08461   Thumb Code     0  da14585_symbols.txt ABSOLUTE
    lld_evt_canceled                         0x07f08463   Thumb Code     0  da14585_symbols.txt ABSOLUTE
    lld_evt_scan_create                      0x07f08487   Thumb Code     0  da14585_symbols.txt ABSOLUTE
    lld_evt_move_to_master                   0x07f08579   Thumb Code     0  da14585_symbols.txt ABSOLUTE
    lld_evt_update_create                    0x07f08673   Thumb Code     0  da14585_symbols.txt ABSOLUTE
    lld_evt_ch_map_update_req                0x07f087a9   Thumb Code     0  da14585_symbols.txt ABSOLUTE
    lld_evt_move_to_slave                    0x07f087c1   Thumb Code     0  da14585_symbols.txt ABSOLUTE
    lld_evt_slave_update                     0x07f089f1   Thumb Code     0  da14585_symbols.txt ABSOLUTE
    lld_evt_adv_create                       0x07f08a87   Thumb Code     0  da14585_symbols.txt ABSOLUTE
    lld_evt_end                              0x07f08b0b   Thumb Code     0  da14585_symbols.txt ABSOLUTE
    lld_evt_rx                               0x07f08c19   Thumb Code     0  da14585_symbols.txt ABSOLUTE
    lld_evt_timer_isr                        0x07f08c49   Thumb Code     0  da14585_symbols.txt ABSOLUTE
    lld_evt_end_isr                          0x07f08c53   Thumb Code     0  da14585_symbols.txt ABSOLUTE
    lld_evt_rx_isr                           0x07f08cd3   Thumb Code     0  da14585_symbols.txt ABSOLUTE
    lld_sleep_us_2_lpcycles_func             0x07f08e81   Thumb Code     0  da14585_symbols.txt ABSOLUTE
    lld_sleep_lpcycles_2_us_func             0x07f08e9f   Thumb Code     0  da14585_symbols.txt ABSOLUTE
    lld_sleep_enter                          0x07f08f9f   Thumb Code     0  da14585_symbols.txt ABSOLUTE
    lld_sleep_wakeup                         0x07f08fdf   Thumb Code     0  da14585_symbols.txt ABSOLUTE
    lld_sleep_wakeup_end                     0x07f08ff9   Thumb Code     0  da14585_symbols.txt ABSOLUTE
    lld_wlcoex_connection_complete           0x07f0901d   Thumb Code     0  da14585_symbols.txt ABSOLUTE
    lld_wlcoex_remove_connection             0x07f09035   Thumb Code     0  da14585_symbols.txt ABSOLUTE
    lld_wlcoex_set                           0x07f09049   Thumb Code     0  da14585_symbols.txt ABSOLUTE
    lld_util_get_bd_address                  0x07f0905d   Thumb Code     0  da14585_symbols.txt ABSOLUTE
    lld_util_set_bd_address                  0x07f0907d   Thumb Code     0  da14585_symbols.txt ABSOLUTE
    lld_util_freq2chnl                       0x07f090b9   Thumb Code     0  da14585_symbols.txt ABSOLUTE
    lld_util_get_local_offset                0x07f090db   Thumb Code     0  da14585_symbols.txt ABSOLUTE
    lld_util_get_peer_offset                 0x07f090f5   Thumb Code     0  da14585_symbols.txt ABSOLUTE
    lld_util_connection_param_set            0x07f09111   Thumb Code     0  da14585_symbols.txt ABSOLUTE
    llm_wl_clr                               0x07f09161   Thumb Code     0  da14585_symbols.txt ABSOLUTE
    llm_init                                 0x07f09189   Thumb Code     0  da14585_symbols.txt ABSOLUTE
    llm_common_cmd_complete_send             0x07f0938d   Thumb Code     0  da14585_symbols.txt ABSOLUTE
    llm_ble_ready                            0x07f093a5   Thumb Code     0  da14585_symbols.txt ABSOLUTE
    llm_wl_from_rl_restore                   0x07f093ab   Thumb Code     0  da14585_symbols.txt ABSOLUTE
    llm_con_req_ind                          0x07f0942d   Thumb Code     0  da14585_symbols.txt ABSOLUTE
    llm_resolv_addr                          0x07f096a3   Thumb Code     0  da14585_symbols.txt ABSOLUTE
    llm_util_rl_wl_update                    0x07f096e5   Thumb Code     0  da14585_symbols.txt ABSOLUTE
    llm_alter_conn                           0x07f0971f   Thumb Code     0  da14585_symbols.txt ABSOLUTE
    llm_adv_report_set                       0x07f097c3   Thumb Code     0  da14585_symbols.txt ABSOLUTE
    llm_direct_adv_report_set                0x07f0983d   Thumb Code     0  da14585_symbols.txt ABSOLUTE
    llm_encryption_start                     0x07f0987f   Thumb Code     0  da14585_symbols.txt ABSOLUTE
    llm_resolv_addr_inplace                  0x07f09903   Thumb Code     0  da14585_symbols.txt ABSOLUTE
    llm_le_adv_report_ind_func               0x07f099d5   Thumb Code     0  da14585_symbols.txt ABSOLUTE
    llm_con_req_tx_cfm                       0x07f09ee3   Thumb Code     0  da14585_symbols.txt ABSOLUTE
    llm_common_cmd_status_send               0x07f0a003   Thumb Code     0  da14585_symbols.txt ABSOLUTE
    llm_test_mode_start_tx                   0x07f0a01b   Thumb Code     0  da14585_symbols.txt ABSOLUTE
    llm_test_mode_start_rx                   0x07f0a10f   Thumb Code     0  da14585_symbols.txt ABSOLUTE
    llm_set_adv_param                        0x07f0a151   Thumb Code     0  da14585_symbols.txt ABSOLUTE
    llm_gen_rand_addr                        0x07f0a2e5   Thumb Code     0  da14585_symbols.txt ABSOLUTE
    llm_wl_from_rl                           0x07f0a3a1   Thumb Code     0  da14585_symbols.txt ABSOLUTE
    llm_set_adv_en                           0x07f0a4d3   Thumb Code     0  da14585_symbols.txt ABSOLUTE
    llm_set_adv_data                         0x07f0a7cf   Thumb Code     0  da14585_symbols.txt ABSOLUTE
    llm_set_scan_rsp_data                    0x07f0a883   Thumb Code     0  da14585_symbols.txt ABSOLUTE
    llm_set_scan_param                       0x07f0a94d   Thumb Code     0  da14585_symbols.txt ABSOLUTE
    llm_set_scan_en                          0x07f0a9d3   Thumb Code     0  da14585_symbols.txt ABSOLUTE
    llm_wl_dev_add                           0x07f0ab47   Thumb Code     0  da14585_symbols.txt ABSOLUTE
    llm_wl_dev_rem                           0x07f0ac21   Thumb Code     0  da14585_symbols.txt ABSOLUTE
    llm_create_con                           0x07f0ac75   Thumb Code     0  da14585_symbols.txt ABSOLUTE
    llm_encryption_done_func                 0x07f0af73   Thumb Code     0  da14585_symbols.txt ABSOLUTE
    llm_get_chnl_assess_nb_pkt               0x07f0b215   Thumb Code     0  da14585_symbols.txt ABSOLUTE
    llm_get_chnl_assess_nb_bad_pkt           0x07f0b21b   Thumb Code     0  da14585_symbols.txt ABSOLUTE
    llm_get_min_rssi                         0x07f0b221   Thumb Code     0  da14585_symbols.txt ABSOLUTE
    llm_le_scan_report_ind                   0x07f0b22b   Thumb Code     0  da14585_symbols.txt ABSOLUTE
    llm_set_tx_oct_time                      0x07f0b2c3   Thumb Code     0  da14585_symbols.txt ABSOLUTE
    llm_p256_start_func                      0x07f0b2eb   Thumb Code     0  da14585_symbols.txt ABSOLUTE
    llm_wlpub_addr_set                       0x07f0b369   Thumb Code     0  da14585_symbols.txt ABSOLUTE
    llm_wlpriv_addr_set                      0x07f0b395   Thumb Code     0  da14585_symbols.txt ABSOLUTE
    hci_rd_local_supp_feats_cmd_handler_func 0x07f0bb57   Thumb Code     0  da14585_symbols.txt ABSOLUTE
    llm_util_bd_addr_in_wl                   0x07f0c405   Thumb Code     0  da14585_symbols.txt ABSOLUTE
    llm_util_check_address_validity          0x07f0c47d   Thumb Code     0  da14585_symbols.txt ABSOLUTE
    llm_util_check_map_validity              0x07f0c48d   Thumb Code     0  da14585_symbols.txt ABSOLUTE
    llm_util_apply_bd_addr                   0x07f0c4d3   Thumb Code     0  da14585_symbols.txt ABSOLUTE
    llm_util_set_public_addr                 0x07f0c4eb   Thumb Code     0  da14585_symbols.txt ABSOLUTE
    llm_util_check_evt_mask                  0x07f0c4f9   Thumb Code     0  da14585_symbols.txt ABSOLUTE
    llm_util_get_channel_map                 0x07f0c51b   Thumb Code     0  da14585_symbols.txt ABSOLUTE
    llm_util_get_supp_features               0x07f0c529   Thumb Code     0  da14585_symbols.txt ABSOLUTE
    llm_util_adv_data_update                 0x07f0c535   Thumb Code     0  da14585_symbols.txt ABSOLUTE
    llm_util_bl_check                        0x07f0c559   Thumb Code     0  da14585_symbols.txt ABSOLUTE
    llm_util_bl_add                          0x07f0c59b   Thumb Code     0  da14585_symbols.txt ABSOLUTE
    llm_util_bl_rem                          0x07f0c5f1   Thumb Code     0  da14585_symbols.txt ABSOLUTE
    llm_util_rl_check                        0x07f0c641   Thumb Code     0  da14585_symbols.txt ABSOLUTE
    llm_util_rl_add                          0x07f0c677   Thumb Code     0  da14585_symbols.txt ABSOLUTE
    llm_util_rl_rem                          0x07f0c6f5   Thumb Code     0  da14585_symbols.txt ABSOLUTE
    llm_util_rl_peer_find                    0x07f0c71b   Thumb Code     0  da14585_symbols.txt ABSOLUTE
    llm_util_rl_peer_resolv                  0x07f0c747   Thumb Code     0  da14585_symbols.txt ABSOLUTE
    llm_util_rl_rpa_find                     0x07f0c799   Thumb Code     0  da14585_symbols.txt ABSOLUTE
    ea_time_get_slot_rounded                 0x07f0c8b9   Thumb Code     0  da14585_symbols.txt ABSOLUTE
    ea_init                                  0x07f0c985   Thumb Code     0  da14585_symbols.txt ABSOLUTE
    ea_elt_create                            0x07f0c9d9   Thumb Code     0  da14585_symbols.txt ABSOLUTE
    ea_time_get_halfslot_rounded             0x07f0c9f3   Thumb Code     0  da14585_symbols.txt ABSOLUTE
    ea_elt_insert                            0x07f0ca23   Thumb Code     0  da14585_symbols.txt ABSOLUTE
    ea_elt_remove                            0x07f0cc67   Thumb Code     0  da14585_symbols.txt ABSOLUTE
    ea_elt_delete                            0x07f0ccef   Thumb Code     0  da14585_symbols.txt ABSOLUTE
    ea_interval_create                       0x07f0cd09   Thumb Code     0  da14585_symbols.txt ABSOLUTE
    ea_interval_insert                       0x07f0cd1f   Thumb Code     0  da14585_symbols.txt ABSOLUTE
    ea_interval_delete                       0x07f0cd2d   Thumb Code     0  da14585_symbols.txt ABSOLUTE
    ea_finetimer_isr                         0x07f0cd47   Thumb Code     0  da14585_symbols.txt ABSOLUTE
    ea_sw_isr                                0x07f0ce19   Thumb Code     0  da14585_symbols.txt ABSOLUTE
    ea_offset_req                            0x07f0ce37   Thumb Code     0  da14585_symbols.txt ABSOLUTE
    ea_sleep_check                           0x07f0cff5   Thumb Code     0  da14585_symbols.txt ABSOLUTE
    ea_interval_duration_req                 0x07f0d04b   Thumb Code     0  da14585_symbols.txt ABSOLUTE
    flash_identify                           0x07f0d16b   Thumb Code     0  da14585_symbols.txt ABSOLUTE
    flash_init                               0x07f0d1b9   Thumb Code     0  da14585_symbols.txt ABSOLUTE
    flash_erase                              0x07f0d1f5   Thumb Code     0  da14585_symbols.txt ABSOLUTE
    flash_write                              0x07f0d259   Thumb Code     0  da14585_symbols.txt ABSOLUTE
    flash_read                               0x07f0d2bd   Thumb Code     0  da14585_symbols.txt ABSOLUTE
    uart_init_func                           0x07f0d34b   Thumb Code     0  da14585_symbols.txt ABSOLUTE
    uart_flow_on_func                        0x07f0d3a9   Thumb Code     0  da14585_symbols.txt ABSOLUTE
    uart_flow_off_func                       0x07f0d3b1   Thumb Code     0  da14585_symbols.txt ABSOLUTE
    uart_finish_transfers_func               0x07f0d401   Thumb Code     0  da14585_symbols.txt ABSOLUTE
    uart_read_func                           0x07f0d419   Thumb Code     0  da14585_symbols.txt ABSOLUTE
    uart_write_func                          0x07f0d42f   Thumb Code     0  da14585_symbols.txt ABSOLUTE
    UART_Handler_func                        0x07f0d451   Thumb Code     0  da14585_symbols.txt ABSOLUTE
    uart_set_flow_off_retries_limit          0x07f0d4a3   Thumb Code     0  da14585_symbols.txt ABSOLUTE
    modulationGainCalibration_func           0x07f0d595   Thumb Code     0  da14585_symbols.txt ABSOLUTE
    DCoffsetCalibration_func                 0x07f0d68b   Thumb Code     0  da14585_symbols.txt ABSOLUTE
    PllLF_IFF_MIX_CapCalibration_func        0x07f0d6d7   Thumb Code     0  da14585_symbols.txt ABSOLUTE
    gtl_init_func                            0x07f0d7e1   Thumb Code     0  da14585_symbols.txt ABSOLUTE
    gtl_enter_sleep                          0x07f0d809   Thumb Code     0  da14585_symbols.txt ABSOLUTE
    gtl_exit_sleep                           0x07f0d833   Thumb Code     0  da14585_symbols.txt ABSOLUTE
    gtl_send_msg                             0x07f0d83b   Thumb Code     0  da14585_symbols.txt ABSOLUTE
    gtl_eif_read_start_func                  0x07f0d8c1   Thumb Code     0  da14585_symbols.txt ABSOLUTE
    gtl_eif_read_hdr_func                    0x07f0d8e1   Thumb Code     0  da14585_symbols.txt ABSOLUTE
    gtl_eif_read_payl_func                   0x07f0d901   Thumb Code     0  da14585_symbols.txt ABSOLUTE
    gtl_eif_tx_done_func                     0x07f0d93f   Thumb Code     0  da14585_symbols.txt ABSOLUTE
    gtl_eif_rx_done_func                     0x07f0d94f   Thumb Code     0  da14585_symbols.txt ABSOLUTE
    gtl_eif_init_func                        0x07f0da81   Thumb Code     0  da14585_symbols.txt ABSOLUTE
    gtl_eif_write                            0x07f0da9b   Thumb Code     0  da14585_symbols.txt ABSOLUTE
    gtl_eif_start                            0x07f0dabd   Thumb Code     0  da14585_symbols.txt ABSOLUTE
    gtl_eif_stop                             0x07f0dac7   Thumb Code     0  da14585_symbols.txt ABSOLUTE
    gtl_env_curr_msg_type_set                0x07f0dae3   Thumb Code     0  da14585_symbols.txt ABSOLUTE
    hci_tl_send                              0x07f0ddc5   Thumb Code     0  da14585_symbols.txt ABSOLUTE
    hci_tl_init                              0x07f0de0d   Thumb Code     0  da14585_symbols.txt ABSOLUTE
    hci_cmd_get_max_param_size               0x07f0de31   Thumb Code     0  da14585_symbols.txt ABSOLUTE
    hci_cmd_received                         0x07f0de7b   Thumb Code     0  da14585_symbols.txt ABSOLUTE
    hci_acl_tx_data_alloc                    0x07f0dfb7   Thumb Code     0  da14585_symbols.txt ABSOLUTE
    hci_acl_tx_data_received                 0x07f0e03d   Thumb Code     0  da14585_symbols.txt ABSOLUTE
    hci_acl_rx_data_alloc                    0x07f0e105   Thumb Code     0  da14585_symbols.txt ABSOLUTE
    hci_acl_rx_data_received                 0x07f0e111   Thumb Code     0  da14585_symbols.txt ABSOLUTE
    hci_evt_received                         0x07f0e147   Thumb Code     0  da14585_symbols.txt ABSOLUTE
    hci_tl_env_tx_queue_cnt_get              0x07f0e2f3   Thumb Code     0  da14585_symbols.txt ABSOLUTE
    hci_util_pack                            0x07f0e411   Thumb Code     0  da14585_symbols.txt ABSOLUTE
    hci_util_unpack                          0x07f0e511   Thumb Code     0  da14585_symbols.txt ABSOLUTE
    hci_look_for_cmd_desc                    0x07f0e9f5   Thumb Code     0  da14585_symbols.txt ABSOLUTE
    hci_look_for_evt_desc                    0x07f0ea41   Thumb Code     0  da14585_symbols.txt ABSOLUTE
    hci_look_for_le_evt_desc                 0x07f0ea63   Thumb Code     0  da14585_symbols.txt ABSOLUTE
    hci_evt_mask_set                         0x07f0ea95   Thumb Code     0  da14585_symbols.txt ABSOLUTE
    hci_init                                 0x07f0eadd   Thumb Code     0  da14585_symbols.txt ABSOLUTE
    hci_reset                                0x07f0eaf9   Thumb Code     0  da14585_symbols.txt ABSOLUTE
    hci_send_2_host                          0x07f0eb11   Thumb Code     0  da14585_symbols.txt ABSOLUTE
    hci_send_2_controller                    0x07f0ebfb   Thumb Code     0  da14585_symbols.txt ABSOLUTE
    h4tl_read_start_func                     0x07f0ecd5   Thumb Code     0  da14585_symbols.txt ABSOLUTE
    h4tl_read_hdr_func                       0x07f0ecf3   Thumb Code     0  da14585_symbols.txt ABSOLUTE
    h4tl_read_payl_func                      0x07f0ed0f   Thumb Code     0  da14585_symbols.txt ABSOLUTE
    h4tl_read_next_out_of_sync_func          0x07f0ed29   Thumb Code     0  da14585_symbols.txt ABSOLUTE
    h4tl_out_of_sync_func                    0x07f0ed3d   Thumb Code     0  da14585_symbols.txt ABSOLUTE
    h4tl_out_of_sync_check                   0x07f0ed63   Thumb Code     0  da14585_symbols.txt ABSOLUTE
    h4tl_tx_done_func                        0x07f0edbf   Thumb Code     0  da14585_symbols.txt ABSOLUTE
    h4tl_rx_done_func                        0x07f0edd7   Thumb Code     0  da14585_symbols.txt ABSOLUTE
    h4tl_init_func                           0x07f0eefb   Thumb Code     0  da14585_symbols.txt ABSOLUTE
    h4tl_write                               0x07f0ef17   Thumb Code     0  da14585_symbols.txt ABSOLUTE
    h4tl_start                               0x07f0ef3f   Thumb Code     0  da14585_symbols.txt ABSOLUTE
    h4tl_stop                                0x07f0ef47   Thumb Code     0  da14585_symbols.txt ABSOLUTE
    h4tl_env_rx_type_set                     0x07f0ef5b   Thumb Code     0  da14585_symbols.txt ABSOLUTE
    h4tl_env_hdr_set                         0x07f0ef67   Thumb Code     0  da14585_symbols.txt ABSOLUTE
    attc_send_att_req                        0x07f0efa5   Thumb Code     0  da14585_symbols.txt ABSOLUTE
    attc_allocate_att_req                    0x07f0efe1   Thumb Code     0  da14585_symbols.txt ABSOLUTE
    attc_send_hdl_cfm                        0x07f0f003   Thumb Code     0  da14585_symbols.txt ABSOLUTE
    attc_send_execute                        0x07f0f019   Thumb Code     0  da14585_symbols.txt ABSOLUTE
    attc_send_read_ind                       0x07f0f033   Thumb Code     0  da14585_symbols.txt ABSOLUTE
    attc_l2cc_pdu_recv_handler_func          0x07f0f973   Thumb Code     0  da14585_symbols.txt ABSOLUTE
    attm_convert_to128                       0x07f0f9cd   Thumb Code     0  da14585_symbols.txt ABSOLUTE
    attm_uuid_comp                           0x07f0f9fd   Thumb Code     0  da14585_symbols.txt ABSOLUTE
    attm_uuid16_comp                         0x07f0fa55   Thumb Code     0  da14585_symbols.txt ABSOLUTE
    attm_is_bt16_uuid                        0x07f0fa61   Thumb Code     0  da14585_symbols.txt ABSOLUTE
    attm_is_bt32_uuid                        0x07f0fa87   Thumb Code     0  da14585_symbols.txt ABSOLUTE
    attmdb_add_service                       0x07f0fe87   Thumb Code     0  da14585_symbols.txt ABSOLUTE
    attmdb_destroy                           0x07f0ff0f   Thumb Code     0  da14585_symbols.txt ABSOLUTE
    attmdb_get_service                       0x07f0ff29   Thumb Code     0  da14585_symbols.txt ABSOLUTE
    attmdb_get_attribute                     0x07f0ff67   Thumb Code     0  da14585_symbols.txt ABSOLUTE
    attmdb_get_next_att                      0x07f0ff9b   Thumb Code     0  da14585_symbols.txt ABSOLUTE
    attmdb_uuid16_comp                       0x07f0ffff   Thumb Code     0  da14585_symbols.txt ABSOLUTE
    attmdb_att_set_value                     0x07f1003b   Thumb Code     0  da14585_symbols.txt ABSOLUTE
    attmdb_get_max_len                       0x07f100e7   Thumb Code     0  da14585_symbols.txt ABSOLUTE
    attmdb_get_uuid                          0x07f1014d   Thumb Code     0  da14585_symbols.txt ABSOLUTE
    attmdb_get_value                         0x07f10223   Thumb Code     0  da14585_symbols.txt ABSOLUTE
    attmdb_att_set_permission                0x07f10373   Thumb Code     0  da14585_symbols.txt ABSOLUTE
    attmdb_att_update_perm                   0x07f103e7   Thumb Code     0  da14585_symbols.txt ABSOLUTE
    attmdb_svc_get_permission                0x07f10455   Thumb Code     0  da14585_symbols.txt ABSOLUTE
    attmdb_att_get_permission                0x07f10473   Thumb Code     0  da14585_symbols.txt ABSOLUTE
    attmdb_svc_set_permission                0x07f10575   Thumb Code     0  da14585_symbols.txt ABSOLUTE
    attmdb_init                              0x07f10599   Thumb Code     0  da14585_symbols.txt ABSOLUTE
    attmdb_get_nb_svc                        0x07f105af   Thumb Code     0  da14585_symbols.txt ABSOLUTE
    attmdb_get_svc_info                      0x07f105c3   Thumb Code     0  da14585_symbols.txt ABSOLUTE
    attm_svc_create_db                       0x07f105f7   Thumb Code     0  da14585_symbols.txt ABSOLUTE
    attmdb_reserve_handle_range              0x07f10705   Thumb Code     0  da14585_symbols.txt ABSOLUTE
    atts_clear_read_cache                    0x07f10895   Thumb Code     0  da14585_symbols.txt ABSOLUTE
    atts_send_error                          0x07f109fd   Thumb Code     0  da14585_symbols.txt ABSOLUTE
    atts_write_signed_cfm                    0x07f10a19   Thumb Code     0  da14585_symbols.txt ABSOLUTE
    atts_send_event                          0x07f10a59   Thumb Code     0  da14585_symbols.txt ABSOLUTE
    atts_clear_prep_data                     0x07f10ae1   Thumb Code     0  da14585_symbols.txt ABSOLUTE
    atts_clear_rsp_data                      0x07f10b05   Thumb Code     0  da14585_symbols.txt ABSOLUTE
    atts_write_rsp_send                      0x07f10b55   Thumb Code     0  da14585_symbols.txt ABSOLUTE
    atts_mtu_exc_req                         0x07f10b75   Thumb Code     0  da14585_symbols.txt ABSOLUTE
    atts_l2cc_pdu_recv_handler_func          0x07f1177f   Thumb Code     0  da14585_symbols.txt ABSOLUTE
    atts_allocate_pdu                        0x07f11957   Thumb Code     0  da14585_symbols.txt ABSOLUTE
    atts_send_pdu                            0x07f11979   Thumb Code     0  da14585_symbols.txt ABSOLUTE
    gattc_cleanup                            0x07f119e7   Thumb Code     0  da14585_symbols.txt ABSOLUTE
    gattc_init                               0x07f11a6b   Thumb Code     0  da14585_symbols.txt ABSOLUTE
    gattc_update_state                       0x07f11a9d   Thumb Code     0  da14585_symbols.txt ABSOLUTE
    gattc_create                             0x07f11ac1   Thumb Code     0  da14585_symbols.txt ABSOLUTE
    gattc_con_enable                         0x07f11b35   Thumb Code     0  da14585_symbols.txt ABSOLUTE
    gattc_get_mtu                            0x07f11b3b   Thumb Code     0  da14585_symbols.txt ABSOLUTE
    gattc_set_mtu                            0x07f11b47   Thumb Code     0  da14585_symbols.txt ABSOLUTE
    gattc_get_requester                      0x07f11b8d   Thumb Code     0  da14585_symbols.txt ABSOLUTE
    gattc_send_complete_evt                  0x07f11ba9   Thumb Code     0  da14585_symbols.txt ABSOLUTE
    gattc_send_error_evt                     0x07f11c05   Thumb Code     0  da14585_symbols.txt ABSOLUTE
    gattc_get_operation                      0x07f11c2b   Thumb Code     0  da14585_symbols.txt ABSOLUTE
    gattc_get_op_seq_num                     0x07f11c41   Thumb Code     0  da14585_symbols.txt ABSOLUTE
    gattc_get_operation_ptr                  0x07f11c57   Thumb Code     0  da14585_symbols.txt ABSOLUTE
    gattc_set_operation_ptr                  0x07f11c63   Thumb Code     0  da14585_symbols.txt ABSOLUTE
    gattc_reschedule_operation               0x07f11c6f   Thumb Code     0  da14585_symbols.txt ABSOLUTE
    gattc_reallocate_svc                     0x07f11cb5   Thumb Code     0  da14585_symbols.txt ABSOLUTE
    gattm_svc_get_start_hdl                  0x07f12c6d   Thumb Code     0  da14585_symbols.txt ABSOLUTE
    gattm_init                               0x07f12c73   Thumb Code     0  da14585_symbols.txt ABSOLUTE
    gattm_init_attr                          0x07f12c91   Thumb Code     0  da14585_symbols.txt ABSOLUTE
    gattm_create                             0x07f12ce5   Thumb Code     0  da14585_symbols.txt ABSOLUTE
    gattm_cleanup                            0x07f12ced   Thumb Code     0  da14585_symbols.txt ABSOLUTE
    gattm_get_max_mtu                        0x07f12cf5   Thumb Code     0  da14585_symbols.txt ABSOLUTE
    gattm_set_max_mtu                        0x07f12cfb   Thumb Code     0  da14585_symbols.txt ABSOLUTE
    gattm_get_max_mps                        0x07f12d17   Thumb Code     0  da14585_symbols.txt ABSOLUTE
    gattm_set_max_mps                        0x07f12d1d   Thumb Code     0  da14585_symbols.txt ABSOLUTE
    l2cc_cleanup                             0x07f12f85   Thumb Code     0  da14585_symbols.txt ABSOLUTE
    l2cc_init                                0x07f12fc9   Thumb Code     0  da14585_symbols.txt ABSOLUTE
    l2cc_create                              0x07f12ffb   Thumb Code     0  da14585_symbols.txt ABSOLUTE
    l2cc_update_state                        0x07f13033   Thumb Code     0  da14585_symbols.txt ABSOLUTE
    l2cm_init                                0x07f13405   Thumb Code     0  da14585_symbols.txt ABSOLUTE
    l2cm_create                              0x07f13419   Thumb Code     0  da14585_symbols.txt ABSOLUTE
    l2cm_cleanup                             0x07f13421   Thumb Code     0  da14585_symbols.txt ABSOLUTE
    l2cm_set_link_layer_buff_size            0x07f13429   Thumb Code     0  da14585_symbols.txt ABSOLUTE
    smpc_send_use_enc_block_cmd              0x07f13439   Thumb Code     0  da14585_symbols.txt ABSOLUTE
    smpc_send_start_enc_cmd                  0x07f13471   Thumb Code     0  da14585_symbols.txt ABSOLUTE
    smpc_send_ltk_req_rsp                    0x07f134eb   Thumb Code     0  da14585_symbols.txt ABSOLUTE
    smpc_send_pairing_req_ind                0x07f13547   Thumb Code     0  da14585_symbols.txt ABSOLUTE
    smpc_send_pairing_ind                    0x07f1362b   Thumb Code     0  da14585_symbols.txt ABSOLUTE
    smpc_check_pairing_feat                  0x07f13747   Thumb Code     0  da14585_symbols.txt ABSOLUTE
    smpc_launch_rep_att_timer                0x07f13761   Thumb Code     0  da14585_symbols.txt ABSOLUTE
    smpc_check_repeated_attempts             0x07f1379d   Thumb Code     0  da14585_symbols.txt ABSOLUTE
    smpc_check_max_key_size                  0x07f137ff   Thumb Code     0  da14585_symbols.txt ABSOLUTE
    smpc_check_key_distrib                   0x07f13845   Thumb Code     0  da14585_symbols.txt ABSOLUTE
    smpc_xor                                 0x07f13885   Thumb Code     0  da14585_symbols.txt ABSOLUTE
    smpc_generate_l                          0x07f1389b   Thumb Code     0  da14585_symbols.txt ABSOLUTE
    smpc_generate_ci                         0x07f138e9   Thumb Code     0  da14585_symbols.txt ABSOLUTE
    smpc_generate_rand                       0x07f1394d   Thumb Code     0  da14585_symbols.txt ABSOLUTE
    smpc_generate_e1                         0x07f13973   Thumb Code     0  da14585_symbols.txt ABSOLUTE
    smpc_generate_cfm                        0x07f13a2d   Thumb Code     0  da14585_symbols.txt ABSOLUTE
    smpc_generate_stk                        0x07f13aa7   Thumb Code     0  da14585_symbols.txt ABSOLUTE
    smpc_calc_subkeys                        0x07f13afd   Thumb Code     0  da14585_symbols.txt ABSOLUTE
    smpc_clear_timeout_timer                 0x07f13b73   Thumb Code     0  da14585_symbols.txt ABSOLUTE
    smpc_pairing_end                         0x07f13b9d   Thumb Code     0  da14585_symbols.txt ABSOLUTE
    smpc_tkdp_rcp_continue                   0x07f13bfb   Thumb Code     0  da14585_symbols.txt ABSOLUTE
    smpc_tkdp_rcp_start                      0x07f13c75   Thumb Code     0  da14585_symbols.txt ABSOLUTE
    smpc_pdu_send                            0x07f13cc9   Thumb Code     0  da14585_symbols.txt ABSOLUTE
    smpc_tkdp_send_start                     0x07f13d67   Thumb Code     0  da14585_symbols.txt ABSOLUTE
    smpc_tkdp_send_continue                  0x07f13df3   Thumb Code     0  da14585_symbols.txt ABSOLUTE
    smpc_get_key_sec_prop                    0x07f13e6f   Thumb Code     0  da14585_symbols.txt ABSOLUTE
    smpc_is_sec_mode_reached                 0x07f13f3b   Thumb Code     0  da14585_symbols.txt ABSOLUTE
    smpc_handle_enc_change_evt               0x07f13f65   Thumb Code     0  da14585_symbols.txt ABSOLUTE
    smpc_pdu_recv_func                       0x07f1401f   Thumb Code     0  da14585_symbols.txt ABSOLUTE
    smpc_generate_subkey                     0x07f14089   Thumb Code     0  da14585_symbols.txt ABSOLUTE
    leftshift_onebit                         0x07f140bd   Thumb Code     0  da14585_symbols.txt ABSOLUTE
    padding                                  0x07f140d5   Thumb Code     0  da14585_symbols.txt ABSOLUTE
    smpc_generate_subkey_P2                  0x07f140f9   Thumb Code     0  da14585_symbols.txt ABSOLUTE
    AES_CMAC_block                           0x07f1419d   Thumb Code     0  da14585_symbols.txt ABSOLUTE
    smpc_generate_f4                         0x07f1425d   Thumb Code     0  da14585_symbols.txt ABSOLUTE
    smpc_generate_g2                         0x07f14371   Thumb Code     0  da14585_symbols.txt ABSOLUTE
    smpc_generate_f5                         0x07f1441b   Thumb Code     0  da14585_symbols.txt ABSOLUTE
    smpc_generate_f5_T                       0x07f1442d   Thumb Code     0  da14585_symbols.txt ABSOLUTE
    smpc_generate_f5_P2                      0x07f1449d   Thumb Code     0  da14585_symbols.txt ABSOLUTE
    smpc_generate_f6                         0x07f1466f   Thumb Code     0  da14585_symbols.txt ABSOLUTE
    smpm_send_encrypt_req                    0x07f14809   Thumb Code     0  da14585_symbols.txt ABSOLUTE
    smpm_send_gen_rand_nb_req                0x07f14837   Thumb Code     0  da14585_symbols.txt ABSOLUTE
    smpm_check_addr_type                     0x07f1484d   Thumb Code     0  da14585_symbols.txt ABSOLUTE
    gapc_update_state                        0x07f148b9   Thumb Code     0  da14585_symbols.txt ABSOLUTE
    gapc_get_requester                       0x07f148e9   Thumb Code     0  da14585_symbols.txt ABSOLUTE
    gapc_send_complete_evt                   0x07f14905   Thumb Code     0  da14585_symbols.txt ABSOLUTE
    gapc_init                                0x07f14a2f   Thumb Code     0  da14585_symbols.txt ABSOLUTE
    gapc_con_create                          0x07f14a61   Thumb Code     0  da14585_symbols.txt ABSOLUTE
    gapc_con_create_enh                      0x07f14b1b   Thumb Code     0  da14585_symbols.txt ABSOLUTE
    gapc_con_cleanup                         0x07f14c15   Thumb Code     0  da14585_symbols.txt ABSOLUTE
    gapc_send_disconect_ind                  0x07f14c25   Thumb Code     0  da14585_symbols.txt ABSOLUTE
    gapc_get_conidx                          0x07f14c47   Thumb Code     0  da14585_symbols.txt ABSOLUTE
    gapc_get_conhdl                          0x07f14c81   Thumb Code     0  da14585_symbols.txt ABSOLUTE
    gapc_get_role                            0x07f14c99   Thumb Code     0  da14585_symbols.txt ABSOLUTE
    gapc_get_bdaddr                          0x07f14cb5   Thumb Code     0  da14585_symbols.txt ABSOLUTE
    gapc_get_csrk                            0x07f14cd5   Thumb Code     0  da14585_symbols.txt ABSOLUTE
    gapc_get_sign_counter                    0x07f14cf3   Thumb Code     0  da14585_symbols.txt ABSOLUTE
    gapc_send_error_evt                      0x07f14d11   Thumb Code     0  da14585_symbols.txt ABSOLUTE
    gapc_get_operation                       0x07f14d33   Thumb Code     0  da14585_symbols.txt ABSOLUTE
    gapc_get_operation_ptr                   0x07f14d49   Thumb Code     0  da14585_symbols.txt ABSOLUTE
    gapc_set_operation_ptr                   0x07f14d55   Thumb Code     0  da14585_symbols.txt ABSOLUTE
    gapc_reschedule_operation                0x07f14d61   Thumb Code     0  da14585_symbols.txt ABSOLUTE
    gapc_get_enc_keysize                     0x07f14d91   Thumb Code     0  da14585_symbols.txt ABSOLUTE
    gapc_is_sec_set                          0x07f14da9   Thumb Code     0  da14585_symbols.txt ABSOLUTE
    gapc_set_enc_keysize                     0x07f14e35   Thumb Code     0  da14585_symbols.txt ABSOLUTE
    gapc_link_encrypted                      0x07f14e49   Thumb Code     0  da14585_symbols.txt ABSOLUTE
    gapc_auth_set                            0x07f14e63   Thumb Code     0  da14585_symbols.txt ABSOLUTE
    gapc_svc_chg_ccc_get                     0x07f14e83   Thumb Code     0  da14585_symbols.txt ABSOLUTE
    gapc_svc_chg_ccc_set                     0x07f14e93   Thumb Code     0  da14585_symbols.txt ABSOLUTE
    gapc_check_lecb_sec_perm                 0x07f14ea9   Thumb Code     0  da14585_symbols.txt ABSOLUTE
    gapc_search_lecb_channel                 0x07f14f11   Thumb Code     0  da14585_symbols.txt ABSOLUTE
    gapc_lecnx_check_tx                      0x07f14f4b   Thumb Code     0  da14585_symbols.txt ABSOLUTE
    gapc_lecnx_check_rx                      0x07f14f93   Thumb Code     0  da14585_symbols.txt ABSOLUTE
    gapc_lecnx_get_field                     0x07f14fd7   Thumb Code     0  da14585_symbols.txt ABSOLUTE
    gapc_process_op                          0x07f1504d   Thumb Code     0  da14585_symbols.txt ABSOLUTE
    gapc_param_update_sanity                 0x07f151c7   Thumb Code     0  da14585_symbols.txt ABSOLUTE
    gapc_param_cb_con_sanity                 0x07f151ef   Thumb Code     0  da14585_symbols.txt ABSOLUTE
    l2cc_pdu_recv_ind_handler_func           0x07f156ab   Thumb Code     0  da14585_symbols.txt ABSOLUTE
    gapc_lecb_connect_cfm_handler_func       0x07f16653   Thumb Code     0  da14585_symbols.txt ABSOLUTE
    gapm_init                                0x07f16a27   Thumb Code     0  da14585_symbols.txt ABSOLUTE
    gapm_init_attr                           0x07f16a83   Thumb Code     0  da14585_symbols.txt ABSOLUTE
    gapm_get_operation                       0x07f16aaf   Thumb Code     0  da14585_symbols.txt ABSOLUTE
    gapm_get_requester                       0x07f16ac1   Thumb Code     0  da14585_symbols.txt ABSOLUTE
    gapm_reschedule_operation                0x07f16ad9   Thumb Code     0  da14585_symbols.txt ABSOLUTE
    gapm_send_complete_evt                   0x07f16afb   Thumb Code     0  da14585_symbols.txt ABSOLUTE
    gapm_send_error_evt                      0x07f16b31   Thumb Code     0  da14585_symbols.txt ABSOLUTE
    gapm_con_create                          0x07f16b51   Thumb Code     0  da14585_symbols.txt ABSOLUTE
    gapm_con_enable                          0x07f16bd5   Thumb Code     0  da14585_symbols.txt ABSOLUTE
    gapm_con_cleanup                         0x07f16be1   Thumb Code     0  da14585_symbols.txt ABSOLUTE
    gapm_get_id_from_task                    0x07f16c11   Thumb Code     0  da14585_symbols.txt ABSOLUTE
    gapm_get_task_from_id                    0x07f16c51   Thumb Code     0  da14585_symbols.txt ABSOLUTE
    gapm_is_disc_connection                  0x07f16c8d   Thumb Code     0  da14585_symbols.txt ABSOLUTE
    gapm_adv_sanity                          0x07f17ab9   Thumb Code     0  da14585_symbols.txt ABSOLUTE
    gapm_adv_op_sanity                       0x07f17bad   Thumb Code     0  da14585_symbols.txt ABSOLUTE
    gapm_set_adv_mode                        0x07f17d2b   Thumb Code     0  da14585_symbols.txt ABSOLUTE
    gapm_set_adv_data                        0x07f17d45   Thumb Code     0  da14585_symbols.txt ABSOLUTE
    gapm_execute_adv_op                      0x07f17dd1   Thumb Code     0  da14585_symbols.txt ABSOLUTE
    gapm_scan_op_sanity                      0x07f17ef7   Thumb Code     0  da14585_symbols.txt ABSOLUTE
    gapm_set_scan_mode                       0x07f17fff   Thumb Code     0  da14585_symbols.txt ABSOLUTE
    gapm_execute_scan_op                     0x07f1801d   Thumb Code     0  da14585_symbols.txt ABSOLUTE
    gapm_connect_op_sanity                   0x07f180d7   Thumb Code     0  da14585_symbols.txt ABSOLUTE
    gapm_basic_hci_cmd_send                  0x07f18257   Thumb Code     0  da14585_symbols.txt ABSOLUTE
    gapm_execute_connect_op                  0x07f1826b   Thumb Code     0  da14585_symbols.txt ABSOLUTE
    gapm_get_role                            0x07f1840d   Thumb Code     0  da14585_symbols.txt ABSOLUTE
    gapm_get_ad_type_flag                    0x07f18415   Thumb Code     0  da14585_symbols.txt ABSOLUTE
    gapm_add_to_filter                       0x07f1843b   Thumb Code     0  da14585_symbols.txt ABSOLUTE
    gapm_is_filtered                         0x07f184bb   Thumb Code     0  da14585_symbols.txt ABSOLUTE
    gapm_update_air_op_state                 0x07f1851f   Thumb Code     0  da14585_symbols.txt ABSOLUTE
    gapm_get_irk                             0x07f185e7   Thumb Code     0  da14585_symbols.txt ABSOLUTE
    gapm_get_bdaddr                          0x07f185ed   Thumb Code     0  da14585_symbols.txt ABSOLUTE
    l2cc_pdu_pack_func                       0x07f18609   Thumb Code     0  da14585_symbols.txt ABSOLUTE
    l2cc_pdu_unpack_func                     0x07f18b01   Thumb Code     0  da14585_symbols.txt ABSOLUTE
    l2cc_detect_dest                         0x07f18e03   Thumb Code     0  da14585_symbols.txt ABSOLUTE
    l2c_process_sdu_func                     0x07f18e5f   Thumb Code     0  da14585_symbols.txt ABSOLUTE
    l2c_send_lecb_message_func               0x07f18f77   Thumb Code     0  da14585_symbols.txt ABSOLUTE
    smpc_check_param_func                    0x07f19071   Thumb Code     0  da14585_symbols.txt ABSOLUTE
    smpc_construct_id_addr_info_pdu          0x07f19157   Thumb Code     0  da14585_symbols.txt ABSOLUTE
    smpc_recv_pair_rand_pdu                  0x07f193e3   Thumb Code     0  da14585_symbols.txt ABSOLUTE
    smpc_recv_public_key_exchange_pdu        0x07f19647   Thumb Code     0  da14585_symbols.txt ABSOLUTE
    gapc_hci_handler                         0x07f19c73   Thumb Code     0  da14585_symbols.txt ABSOLUTE
    gapm_hci_handler                         0x07f1a8c1   Thumb Code     0  da14585_symbols.txt ABSOLUTE
    smpc_pairing_start                       0x07f1a951   Thumb Code     0  da14585_symbols.txt ABSOLUTE
    smpc_pairing_tk_exch                     0x07f1a9d7   Thumb Code     0  da14585_symbols.txt ABSOLUTE
    smpc_pairing_ltk_exch                    0x07f1aa95   Thumb Code     0  da14585_symbols.txt ABSOLUTE
    smpc_pairing_csrk_exch                   0x07f1aae9   Thumb Code     0  da14585_symbols.txt ABSOLUTE
    smpc_pairing_rsp                         0x07f1ab3f   Thumb Code     0  da14585_symbols.txt ABSOLUTE
    smpc_pairing_req_handler                 0x07f1ac23   Thumb Code     0  da14585_symbols.txt ABSOLUTE
    smpc_security_req_send                   0x07f1ac5b   Thumb Code     0  da14585_symbols.txt ABSOLUTE
    smpc_encrypt_start                       0x07f1ac85   Thumb Code     0  da14585_symbols.txt ABSOLUTE
    smpc_encrypt_start_handler               0x07f1acab   Thumb Code     0  da14585_symbols.txt ABSOLUTE
    smpc_encrypt_cfm                         0x07f1acdd   Thumb Code     0  da14585_symbols.txt ABSOLUTE
    smpc_sign_command                        0x07f1ad09   Thumb Code     0  da14585_symbols.txt ABSOLUTE
    smpc_sign_cont                           0x07f1ade1   Thumb Code     0  da14585_symbols.txt ABSOLUTE
    smpc_calc_confirm_cont                   0x07f1af87   Thumb Code     0  da14585_symbols.txt ABSOLUTE
    smpc_confirm_gen_rand                    0x07f1b4c9   Thumb Code     0  da14585_symbols.txt ABSOLUTE
    smpc_public_key_exchange_start_func      0x07f1b58f   Thumb Code     0  da14585_symbols.txt ABSOLUTE
    smpc_dhkey_calc_start                    0x07f1b5b3   Thumb Code     0  da14585_symbols.txt ABSOLUTE
    smpc_sec_authentication_start            0x07f1b601   Thumb Code     0  da14585_symbols.txt ABSOLUTE
    smpc_dhkey_calc_ind_func                 0x07f1b62f   Thumb Code     0  da14585_symbols.txt ABSOLUTE
    smpm_gen_rand_addr                       0x07f1b675   Thumb Code     0  da14585_symbols.txt ABSOLUTE
    smpm_resolv_addr                         0x07f1b68d   Thumb Code     0  da14585_symbols.txt ABSOLUTE
    smpm_use_enc_block                       0x07f1b6af   Thumb Code     0  da14585_symbols.txt ABSOLUTE
    smpm_gen_rand_nb                         0x07f1b6b7   Thumb Code     0  da14585_symbols.txt ABSOLUTE
    smpm_ecdh_key_create_func                0x07f1b6bf   Thumb Code     0  da14585_symbols.txt ABSOLUTE
    ke_init                                  0x07f1b6dd   Thumb Code     0  da14585_symbols.txt ABSOLUTE
    ke_flush                                 0x07f1b70f   Thumb Code     0  da14585_symbols.txt ABSOLUTE
    ke_sleep_check                           0x07f1b74f   Thumb Code     0  da14585_symbols.txt ABSOLUTE
    ke_stats_get                             0x07f1b761   Thumb Code     0  da14585_symbols.txt ABSOLUTE
    ke_event_init                            0x07f1b77d   Thumb Code     0  da14585_symbols.txt ABSOLUTE
    ke_event_callback_set                    0x07f1b789   Thumb Code     0  da14585_symbols.txt ABSOLUTE
    ke_event_set                             0x07f1b79d   Thumb Code     0  da14585_symbols.txt ABSOLUTE
    ke_event_clear                           0x07f1b7c9   Thumb Code     0  da14585_symbols.txt ABSOLUTE
    ke_event_get                             0x07f1b7f5   Thumb Code     0  da14585_symbols.txt ABSOLUTE
    ke_event_get_all                         0x07f1b81b   Thumb Code     0  da14585_symbols.txt ABSOLUTE
    ke_event_flush                           0x07f1b821   Thumb Code     0  da14585_symbols.txt ABSOLUTE
    ke_event_schedule                        0x07f1b829   Thumb Code     0  da14585_symbols.txt ABSOLUTE
    ke_mem_init                              0x07f1b879   Thumb Code     0  da14585_symbols.txt ABSOLUTE
    ke_mem_is_empty                          0x07f1b8c5   Thumb Code     0  da14585_symbols.txt ABSOLUTE
    ke_check_malloc                          0x07f1b905   Thumb Code     0  da14585_symbols.txt ABSOLUTE
    ke_malloc                                0x07f1b995   Thumb Code     0  da14585_symbols.txt ABSOLUTE
    ke_free                                  0x07f1ba8b   Thumb Code     0  da14585_symbols.txt ABSOLUTE
    ke_is_free                               0x07f1bb6d   Thumb Code     0  da14585_symbols.txt ABSOLUTE
    ke_get_mem_usage                         0x07f1bb7f   Thumb Code     0  da14585_symbols.txt ABSOLUTE
    ke_get_max_mem_usage                     0x07f1bb8b   Thumb Code     0  da14585_symbols.txt ABSOLUTE
    ke_msg_alloc                             0x07f1bbb1   Thumb Code     0  da14585_symbols.txt ABSOLUTE
    ke_msg_send                              0x07f1bbe3   Thumb Code     0  da14585_symbols.txt ABSOLUTE
    ke_msg_send_basic                        0x07f1bc0f   Thumb Code     0  da14585_symbols.txt ABSOLUTE
    ke_msg_forward                           0x07f1bc1d   Thumb Code     0  da14585_symbols.txt ABSOLUTE
    ke_msg_forward_new_id                    0x07f1bc27   Thumb Code     0  da14585_symbols.txt ABSOLUTE
    ke_msg_free                              0x07f1bc37   Thumb Code     0  da14585_symbols.txt ABSOLUTE
    ke_msg_dest_id_get                       0x07f1bc3f   Thumb Code     0  da14585_symbols.txt ABSOLUTE
    ke_msg_src_id_get                        0x07f1bc45   Thumb Code     0  da14585_symbols.txt ABSOLUTE
    ke_msg_in_queue                          0x07f1bc4b   Thumb Code     0  da14585_symbols.txt ABSOLUTE
    ke_queue_extract                         0x07f1bc5d   Thumb Code     0  da14585_symbols.txt ABSOLUTE
    ke_queue_insert                          0x07f1bcad   Thumb Code     0  da14585_symbols.txt ABSOLUTE
    ke_task_init_func                        0x07f1be3f   Thumb Code     0  da14585_symbols.txt ABSOLUTE
    ke_task_create                           0x07f1be53   Thumb Code     0  da14585_symbols.txt ABSOLUTE
    ke_task_delete                           0x07f1be8b   Thumb Code     0  da14585_symbols.txt ABSOLUTE
    ke_state_set                             0x07f1beb7   Thumb Code     0  da14585_symbols.txt ABSOLUTE
    ke_state_get                             0x07f1bf1b   Thumb Code     0  da14585_symbols.txt ABSOLUTE
    ke_msg_discard                           0x07f1bf39   Thumb Code     0  da14585_symbols.txt ABSOLUTE
    ke_msg_save                              0x07f1bf3d   Thumb Code     0  da14585_symbols.txt ABSOLUTE
    ke_task_msg_flush                        0x07f1bf41   Thumb Code     0  da14585_symbols.txt ABSOLUTE
    ke_timer_init_func                       0x07f1c049   Thumb Code     0  da14585_symbols.txt ABSOLUTE
    ke_timer_set                             0x07f1c055   Thumb Code     0  da14585_symbols.txt ABSOLUTE
    ke_timer_clear                           0x07f1c0e9   Thumb Code     0  da14585_symbols.txt ABSOLUTE
    ke_timer_active                          0x07f1c13f   Thumb Code     0  da14585_symbols.txt ABSOLUTE
    ke_timer_sleep_check                     0x07f1c165   Thumb Code     0  da14585_symbols.txt ABSOLUTE
    rwble_hl_reset                           0x07f1c28b   Thumb Code     0  da14585_symbols.txt ABSOLUTE
    rwble_hl_send_message                    0x07f1c2ad   Thumb Code     0  da14585_symbols.txt ABSOLUTE
    rwip_check_wakeup_boundary               0x07f1c2b1   Thumb Code     0  da14585_symbols.txt ABSOLUTE
    rwip_init                                0x07f1c2d7   Thumb Code     0  da14585_symbols.txt ABSOLUTE
    rwip_reset                               0x07f1c39b   Thumb Code     0  da14585_symbols.txt ABSOLUTE
    rwip_version                             0x07f1c3d3   Thumb Code     0  da14585_symbols.txt ABSOLUTE
    rwip_schedule                            0x07f1c3db   Thumb Code     0  da14585_symbols.txt ABSOLUTE
    rwip_prevent_sleep_set                   0x07f1c47f   Thumb Code     0  da14585_symbols.txt ABSOLUTE
    rwip_wakeup                              0x07f1c4a1   Thumb Code     0  da14585_symbols.txt ABSOLUTE
    rwip_prevent_sleep_clear                 0x07f1c4b7   Thumb Code     0  da14585_symbols.txt ABSOLUTE
    rwip_wakeup_end                          0x07f1c4d9   Thumb Code     0  da14585_symbols.txt ABSOLUTE
    rwip_wakeup_delay_set                    0x07f1c4f5   Thumb Code     0  da14585_symbols.txt ABSOLUTE
    rwip_sleep_enable                        0x07f1c503   Thumb Code     0  da14585_symbols.txt ABSOLUTE
    rwip_ext_wakeup_enable                   0x07f1c509   Thumb Code     0  da14585_symbols.txt ABSOLUTE
    rwble_init                               0x07f1c52d   Thumb Code     0  da14585_symbols.txt ABSOLUTE
    rwble_reset                              0x07f1c593   Thumb Code     0  da14585_symbols.txt ABSOLUTE
    rwble_version                            0x07f1c5c7   Thumb Code     0  da14585_symbols.txt ABSOLUTE
    rwble_send_message                       0x07f1c5f3   Thumb Code     0  da14585_symbols.txt ABSOLUTE
    YieldToScheduler                         0x07f1c6d9   Thumb Code     0  da14585_symbols.txt ABSOLUTE
    xorshift64star                           0x07f1c6e1   Thumb Code     0  da14585_symbols.txt ABSOLUTE
    uECC_set_rng                             0x07f1c747   Thumb Code     0  da14585_symbols.txt ABSOLUTE
    uECC_get_rng                             0x07f1c74d   Thumb Code     0  da14585_symbols.txt ABSOLUTE
    uECC_curve_private_key_size              0x07f1c753   Thumb Code     0  da14585_symbols.txt ABSOLUTE
    uECC_curve_public_key_size               0x07f1c763   Thumb Code     0  da14585_symbols.txt ABSOLUTE
    uECC_vli_clear                           0x07f1c76b   Thumb Code     0  da14585_symbols.txt ABSOLUTE
    uECC_vli_isZero                          0x07f1c781   Thumb Code     0  da14585_symbols.txt ABSOLUTE
    uECC_vli_testBit                         0x07f1c7a3   Thumb Code     0  da14585_symbols.txt ABSOLUTE
    uECC_vli_numBits                         0x07f1c7b5   Thumb Code     0  da14585_symbols.txt ABSOLUTE
    uECC_vli_set                             0x07f1c7ef   Thumb Code     0  da14585_symbols.txt ABSOLUTE
    uECC_vli_equal                           0x07f1c82d   Thumb Code     0  da14585_symbols.txt ABSOLUTE
    uECC_vli_cmp                             0x07f1c851   Thumb Code     0  da14585_symbols.txt ABSOLUTE
    uECC_vli_rshift1                         0x07f1c887   Thumb Code     0  da14585_symbols.txt ABSOLUTE
    uECC_vli_square                          0x07f1c8a5   Thumb Code     0  da14585_symbols.txt ABSOLUTE
    uECC_vli_modAdd                          0x07f1c8b1   Thumb Code     0  da14585_symbols.txt ABSOLUTE
    uECC_vli_modSub                          0x07f1c8df   Thumb Code     0  da14585_symbols.txt ABSOLUTE
    uECC_vli_mmod                            0x07f1c8ff   Thumb Code     0  da14585_symbols.txt ABSOLUTE
    uECC_vli_modMult                         0x07f1ca09   Thumb Code     0  da14585_symbols.txt ABSOLUTE
    uECC_vli_modMult_fast                    0x07f1ca2b   Thumb Code     0  da14585_symbols.txt ABSOLUTE
    uECC_vli_modSquare                       0x07f1ca4b   Thumb Code     0  da14585_symbols.txt ABSOLUTE
    uECC_vli_modSquare_fast                  0x07f1ca59   Thumb Code     0  da14585_symbols.txt ABSOLUTE
    uECC_vli_modInv                          0x07f1ca99   Thumb Code     0  da14585_symbols.txt ABSOLUTE
    uECC_secp256r1                           0x07f1cdd5   Thumb Code     0  da14585_symbols.txt ABSOLUTE
    uECC_vli_nativeToBytes                   0x07f1d3d3   Thumb Code     0  da14585_symbols.txt ABSOLUTE
    uECC_vli_bytesToNative                   0x07f1d3f5   Thumb Code     0  da14585_symbols.txt ABSOLUTE
    uECC_generate_random_int                 0x07f1d433   Thumb Code     0  da14585_symbols.txt ABSOLUTE
    uECC_make_key                            0x07f1d495   Thumb Code     0  da14585_symbols.txt ABSOLUTE
    uECC_shared_secret                       0x07f1d513   Thumb Code     0  da14585_symbols.txt ABSOLUTE
    uECC_compress                            0x07f1d5cf   Thumb Code     0  da14585_symbols.txt ABSOLUTE
    uECC_decompress                          0x07f1d5fd   Thumb Code     0  da14585_symbols.txt ABSOLUTE
    uECC_valid_point                         0x07f1d66d   Thumb Code     0  da14585_symbols.txt ABSOLUTE
    uECC_valid_public_key                    0x07f1d6cf   Thumb Code     0  da14585_symbols.txt ABSOLUTE
    uECC_compute_public_key                  0x07f1d703   Thumb Code     0  da14585_symbols.txt ABSOLUTE
    uECC_sign                                0x07f1d989   Thumb Code     0  da14585_symbols.txt ABSOLUTE
    uECC_sign_deterministic                  0x07f1da6f   Thumb Code     0  da14585_symbols.txt ABSOLUTE
    uECC_verify                              0x07f1dbdd   Thumb Code     0  da14585_symbols.txt ABSOLUTE
    uECC_curve_num_words                     0x07f1de89   Thumb Code     0  da14585_symbols.txt ABSOLUTE
    uECC_curve_num_bytes                     0x07f1de91   Thumb Code     0  da14585_symbols.txt ABSOLUTE
    uECC_curve_num_bits                      0x07f1de99   Thumb Code     0  da14585_symbols.txt ABSOLUTE
    uECC_curve_num_n_words                   0x07f1dea1   Thumb Code     0  da14585_symbols.txt ABSOLUTE
    uECC_curve_num_n_bytes                   0x07f1deb1   Thumb Code     0  da14585_symbols.txt ABSOLUTE
    uECC_curve_num_n_bits                    0x07f1dec1   Thumb Code     0  da14585_symbols.txt ABSOLUTE
    uECC_curve_p                             0x07f1dec9   Thumb Code     0  da14585_symbols.txt ABSOLUTE
    uECC_curve_n                             0x07f1decd   Thumb Code     0  da14585_symbols.txt ABSOLUTE
    uECC_curve_G                             0x07f1ded1   Thumb Code     0  da14585_symbols.txt ABSOLUTE
    uECC_curve_b                             0x07f1ded5   Thumb Code     0  da14585_symbols.txt ABSOLUTE
    uECC_vli_mod_sqrt                        0x07f1ded9   Thumb Code     0  da14585_symbols.txt ABSOLUTE
    uECC_vli_mmod_fast                       0x07f1dedf   Thumb Code     0  da14585_symbols.txt ABSOLUTE
    uECC_point_mult                          0x07f1dee5   Thumb Code     0  da14585_symbols.txt ABSOLUTE
    __aeabi_uidiv                            0x07f1dfb9   Thumb Code     0  da14585_symbols.txt ABSOLUTE
    __aeabi_uidivmod                         0x07f1dfb9   Thumb Code     0  da14585_symbols.txt ABSOLUTE
    __aeabi_idiv                             0x07f1dfe5   Thumb Code     0  da14585_symbols.txt ABSOLUTE
    __aeabi_idivmod                          0x07f1dfe5   Thumb Code     0  da14585_symbols.txt ABSOLUTE
    __aeabi_lmul                             0x07f1e00d   Thumb Code     0  da14585_symbols.txt ABSOLUTE
    _ll_mul                                  0x07f1e00d   Thumb Code     0  da14585_symbols.txt ABSOLUTE
    rand                                     0x07f1e089   Thumb Code     0  da14585_symbols.txt ABSOLUTE
    srand                                    0x07f1e09b   Thumb Code     0  da14585_symbols.txt ABSOLUTE
    __aeabi_memcpy                           0x07f1e0ad   Thumb Code     0  da14585_symbols.txt ABSOLUTE
    __aeabi_memcpy4                          0x07f1e0ad   Thumb Code     0  da14585_symbols.txt ABSOLUTE
    __aeabi_memcpy8                          0x07f1e0ad   Thumb Code     0  da14585_symbols.txt ABSOLUTE
    __aeabi_memset                           0x07f1e0d1   Thumb Code     0  da14585_symbols.txt ABSOLUTE
    __aeabi_memset4                          0x07f1e0d1   Thumb Code     0  da14585_symbols.txt ABSOLUTE
    __aeabi_memset8                          0x07f1e0d1   Thumb Code     0  da14585_symbols.txt ABSOLUTE
    __aeabi_memclr                           0x07f1e0df   Thumb Code     0  da14585_symbols.txt ABSOLUTE
    __aeabi_memclr4                          0x07f1e0df   Thumb Code     0  da14585_symbols.txt ABSOLUTE
    __aeabi_memclr8                          0x07f1e0df   Thumb Code     0  da14585_symbols.txt ABSOLUTE
    _memset$wrapper                          0x07f1e0e3   Thumb Code     0  da14585_symbols.txt ABSOLUTE
    memcmp                                   0x07f1e0f5   Thumb Code     0  da14585_symbols.txt ABSOLUTE
    __aeabi_uread4                           0x07f1e10f   Thumb Code     0  da14585_symbols.txt ABSOLUTE
    __rt_uread4                              0x07f1e10f   Thumb Code     0  da14585_symbols.txt ABSOLUTE
    _uread4                                  0x07f1e10f   Thumb Code     0  da14585_symbols.txt ABSOLUTE
    __aeabi_uwrite4                          0x07f1e123   Thumb Code     0  da14585_symbols.txt ABSOLUTE
    __rt_uwrite4                             0x07f1e123   Thumb Code     0  da14585_symbols.txt ABSOLUTE
    _uwrite4                                 0x07f1e123   Thumb Code     0  da14585_symbols.txt ABSOLUTE
    __aeabi_llsl                             0x07f1e135   Thumb Code     0  da14585_symbols.txt ABSOLUTE
    _ll_shift_l                              0x07f1e135   Thumb Code     0  da14585_symbols.txt ABSOLUTE
    __ARM_common_switch8                     0x07f1e155   Thumb Code     0  da14585_symbols.txt ABSOLUTE
    uart_api                                 0x07f1e170   Data           0  da14585_symbols.txt ABSOLUTE
    co_sca2ppm                               0x07f1e180   Data           0  da14585_symbols.txt ABSOLUTE
    co_null_bdaddr                           0x07f1e190   Data           0  da14585_symbols.txt ABSOLUTE
    co_default_bdaddr                        0x07f1e196   Data           0  da14585_symbols.txt ABSOLUTE
    llc_state_handler                        0x07f1e41c   Data           0  da14585_symbols.txt ABSOLUTE
    llc_default_handler                      0x07f1e4ec   Data           0  da14585_symbols.txt ABSOLUTE
    llm_dflt_bdaddr                          0x07f1e504   Data           0  da14585_symbols.txt ABSOLUTE
    llm_local_cmds                           0x07f1e51c   Data           0  da14585_symbols.txt ABSOLUTE
    llm_local_le_feats                       0x07f1e55c   Data           0  da14585_symbols.txt ABSOLUTE
    llm_local_le_states                      0x07f1e564   Data           0  da14585_symbols.txt ABSOLUTE
    llm_state_handler                        0x07f1e74c   Data           0  da14585_symbols.txt ABSOLUTE
    llm_default_handler                      0x07f1e77c   Data           0  da14585_symbols.txt ABSOLUTE
    LLM_AA_CT1                               0x07f1e784   Data           0  da14585_symbols.txt ABSOLUTE
    LLM_AA_CT2                               0x07f1e787   Data           0  da14585_symbols.txt ABSOLUTE
    ecc_p256_G                               0x07f1e789   Data           0  da14585_symbols.txt ABSOLUTE
    gtl_default_state                        0x07f1e7dc   Data           0  da14585_symbols.txt ABSOLUTE
    gtl_default_handler                      0x07f1e7e4   Data           0  da14585_symbols.txt ABSOLUTE
    hci_cmd_desc_tab_lk_ctrl                 0x07f1e7f0   Data           0  da14585_symbols.txt ABSOLUTE
    hci_cmd_desc_tab_ctrl_bb                 0x07f1e814   Data           0  da14585_symbols.txt ABSOLUTE
    hci_cmd_desc_tab_info_par                0x07f1e88c   Data           0  da14585_symbols.txt ABSOLUTE
    hci_cmd_desc_tab_stat_par                0x07f1e8c8   Data           0  da14585_symbols.txt ABSOLUTE
    hci_cmd_desc_tab_le                      0x07f1e8d4   Data           0  da14585_symbols.txt ABSOLUTE
    hci_cmd_desc_tab_vs                      0x07f1eb14   Data           0  da14585_symbols.txt ABSOLUTE
    rom_hci_cmd_desc_root_tab                0x07f1ec58   Data           0  da14585_symbols.txt ABSOLUTE
    hci_evt_desc_tab                         0x07f1ec88   Data           0  da14585_symbols.txt ABSOLUTE
    hci_evt_le_desc_tab                      0x07f1ecd0   Data           0  da14585_symbols.txt ABSOLUTE
    attc_handlers                            0x07f1ed40   Data           0  da14585_symbols.txt ABSOLUTE
    atts_handlers                            0x07f1edb0   Data           0  da14585_symbols.txt ABSOLUTE
    gattc_default_state                      0x07f1ee30   Data           0  da14585_symbols.txt ABSOLUTE
    gattc_default_handler                    0x07f1ef10   Data           0  da14585_symbols.txt ABSOLUTE
    gattm_default_state                      0x07f1ef5c   Data           0  da14585_symbols.txt ABSOLUTE
    gattm_default_handler                    0x07f1efb4   Data           0  da14585_symbols.txt ABSOLUTE
    l2cc_default_state                       0x07f1efcc   Data           0  da14585_symbols.txt ABSOLUTE
    l2cc_default_handler                     0x07f1efe4   Data           0  da14585_symbols.txt ABSOLUTE
    const_Rb                                 0x07f1f005   Data           0  da14585_symbols.txt ABSOLUTE
    const_Zero                               0x07f1f015   Data           0  da14585_symbols.txt ABSOLUTE
    gapc_default_state                       0x07f1f038   Data           0  da14585_symbols.txt ABSOLUTE
    gapc_default_handler                     0x07f1f188   Data           0  da14585_symbols.txt ABSOLUTE
    gapm_default_state                       0x07f1f224   Data           0  da14585_symbols.txt ABSOLUTE
    gapm_default_handler                     0x07f1f30c   Data           0  da14585_symbols.txt ABSOLUTE
    l2cc_connor_pkt_format                   0x07f1f314   Data           0  da14585_symbols.txt ABSOLUTE
    l2cc_signaling_pkt_format                0x07f1f31c   Data           0  da14585_symbols.txt ABSOLUTE
    l2cc_security_pkt_format                 0x07f1f378   Data           0  da14585_symbols.txt ABSOLUTE
    l2cc_attribute_pkt_format                0x07f1f3b4   Data           0  da14585_symbols.txt ABSOLUTE
    smpc_construct_pdu                       0x07f1f430   Data           0  da14585_symbols.txt ABSOLUTE
    __Vectors                                0x07fc0000   Data           4  startup_da14585_586.o(RESET)
    __Vectors_End                            0x07fc00a0   Data           0  startup_da14585_586.o(RESET)
    Image$$ER_IROM3$$Base                    0x07fc0510   Number         0  anon$$obj.o ABSOLUTE
    __main                                   0x07fc0511   Thumb Code     0  entry.o(.ARM.Collect$$$$00000000)
    _main_stk                                0x07fc0511   Thumb Code     0  entry2.o(.ARM.Collect$$$$00000001)
    _main_scatterload                        0x07fc0515   Thumb Code     0  entry5.o(.ARM.Collect$$$$00000004)
    __main_after_scatterload                 0x07fc0519   Thumb Code     0  entry5.o(.ARM.Collect$$$$00000004)
    _main_clock                              0x07fc0519   Thumb Code     0  entry7b.o(.ARM.Collect$$$$00000008)
    _main_cpp_init                           0x07fc0519   Thumb Code     0  entry8b.o(.ARM.Collect$$$$0000000A)
    _main_init                               0x07fc0519   Thumb Code     0  entry9a.o(.ARM.Collect$$$$0000000B)
    __rt_final_cpp                           0x07fc0521   Thumb Code     0  entry10a.o(.ARM.Collect$$$$0000000D)
    __rt_final_exit                          0x07fc0521   Thumb Code     0  entry11a.o(.ARM.Collect$$$$0000000F)
    Reset_Handler                            0x07fc0525   Thumb Code     8  startup_da14585_586.o(.text)
    SVC_Handler                              0x07fc055d   Thumb Code     2  startup_da14585_586.o(.text)
    PendSV_Handler                           0x07fc055f   Thumb Code     2  startup_da14585_586.o(.text)
    BLE_RF_DIAG_Handler                      0x07fc0563   Thumb Code     0  startup_da14585_586.o(.text)
    DMA_Handler                              0x07fc0563   Thumb Code     0  startup_da14585_586.o(.text)
    KEYBRD_Handler                           0x07fc0563   Thumb Code     0  startup_da14585_586.o(.text)
    PCM_Handler                              0x07fc0563   Thumb Code     0  startup_da14585_586.o(.text)
    RESERVED21_Handler                       0x07fc0563   Thumb Code     0  startup_da14585_586.o(.text)
    RESERVED22_Handler                       0x07fc0563   Thumb Code     0  startup_da14585_586.o(.text)
    RESERVED23_Handler                       0x07fc0563   Thumb Code     0  startup_da14585_586.o(.text)
    RFCAL_Handler                            0x07fc0563   Thumb Code     0  startup_da14585_586.o(.text)
    SPI_Handler                              0x07fc0563   Thumb Code     0  startup_da14585_586.o(.text)
    SRCIN_Handler                            0x07fc0563   Thumb Code     0  startup_da14585_586.o(.text)
    SRCOUT_Handler                           0x07fc0563   Thumb Code     0  startup_da14585_586.o(.text)
    SWTIM_Handler                            0x07fc0563   Thumb Code     0  startup_da14585_586.o(.text)
    PATCHED_atts_mtu_exc_req                 0x07fc0575   Thumb Code    52  patch.o(.text)
    PATCHED_smpc_is_sec_mode_reached         0x07fc05a9   Thumb Code    66  patch.o(.text)
    PATCHED_smpc_check_key_distrib           0x07fc05eb   Thumb Code    74  patch.o(.text)
    PATCHED_llcp_length_req_handler          0x07fc0635   Thumb Code   120  patch.o(.text)
    PATCHED_llcp_length_rsp_handler          0x07fc06ad   Thumb Code   136  patch.o(.text)
    JT_llc_le_length_effective_func          0x07fc0735   Thumb Code   182  patch.o(.text)
    PATCHED_smpc_construct_id_addr_info_pdu  0x07fc07eb   Thumb Code    48  patch.o(.text)
    PATCHED_llc_util_gen_skdx                0x07fc081b   Thumb Code    20  patch.o(.text)
    PATCHED_llm_adv_report_set               0x07fc082f   Thumb Code   142  patch.o(.text)
    PATCHED_lld_evt_move_to_master           0x07fc08bd   Thumb Code   360  patch.o(.text)
    PATCHED_gapm_adv_sanity                  0x07fc0a25   Thumb Code   244  patch.o(.text)
    PATCHED_gapm_get_ad_type_flag            0x07fc0b19   Thumb Code    38  patch.o(.text)
    PK_PointMult_func                        0x07fc0b3f   Thumb Code   246  patch.o(.text)
    llm_create_p256_key_func                 0x07fc0c35   Thumb Code    70  patch.o(.text)
    llm_p256_req_handler_func                0x07fc0c7b   Thumb Code   290  patch.o(.text)
    PATCHED_hci_command_handler              0x07fc0deb   Thumb Code   110  patch.o(.text)
    JT_l2cc_pdu_unpack_func                  0x07fc11d9   Thumb Code   812  patch.o(.text)
    JT_l2cc_pdu_recv_ind_handler_func        0x07fc1505   Thumb Code    70  patch.o(.text)
    PATCHED_llc_ch_map_req_ind               0x07fc154b   Thumb Code   110  patch.o(.text)
    PATCHED_smpc_recv_public_key_exchange_pdu 0x07fc16eb   Thumb Code   106  patch.o(.text)
    PATCHED_llm_con_req_ind                  0x07fc17e7   Thumb Code   624  patch.o(.text)
    patch_func                               0x07fc1a57   Thumb Code    48  patch.o(.text)
    patch_global_vars_init                   0x07fc1a87   Thumb Code     2  patch.o(.text)
    rf_calibration_585                       0x07fc1ab9   Thumb Code    84  rf_calibration.o(.text)
    enable_rf_diag_irq                       0x07fc1b0d   Thumb Code   112  rf_calibration.o(.text)
    set_gauss_modgain                        0x07fc1b7d   Thumb Code    54  rf_calibration.o(.text)
    PATCHED_smpc_dhkey_calc_start            0x07fc1bcd   Thumb Code   136  smpc_util.o(.text)
    JT_llm_p256_start_func                   0x07fc1c55   Thumb Code    82  smpc_util.o(.text)
    __aeabi_uldivmod                         0x07fc1cb5   Thumb Code    96  uldiv.o(.text)
    __scatterload                            0x07fc1d15   Thumb Code    28  init.o(.text)
    __scatterload_rt2                        0x07fc1d15   Thumb Code     0  init.o(.text)
    __aeabi_llsr                             0x07fc1d39   Thumb Code    34  llushr.o(.text)
    _ll_ushift_r                             0x07fc1d39   Thumb Code     0  llushr.o(.text)
    ADC_Handler                              0x07fc1d5d   Thumb Code     8  lto-llvm-8ef5f6.o(.text.ADC_Handler)
    BLE_WAKEUP_LP_Handler                    0x07fc1d69   Thumb Code   360  lto-llvm-8ef5f6.o(.text.BLE_WAKEUP_LP_Handler)
    GPIO0_Handler                            0x07fc215d   Thumb Code    10  lto-llvm-8ef5f6.o(.text.GPIO0_Handler)
    GPIO1_Handler                            0x07fc2167   Thumb Code    10  lto-llvm-8ef5f6.o(.text.GPIO1_Handler)
    GPIO2_Handler                            0x07fc2171   Thumb Code    10  lto-llvm-8ef5f6.o(.text.GPIO2_Handler)
    GPIO3_Handler                            0x07fc217b   Thumb Code    10  lto-llvm-8ef5f6.o(.text.GPIO3_Handler)
    GPIO4_Handler                            0x07fc2185   Thumb Code    10  lto-llvm-8ef5f6.o(.text.GPIO4_Handler)
    HardFault_HandlerC                       0x07fc221d   Thumb Code    16  lto-llvm-8ef5f6.o(.text.HardFault_HandlerC)
    I2C_Handler                              0x07fc2235   Thumb Code    12  lto-llvm-8ef5f6.o(.text.I2C_Handler)
    NMI_HandlerC                             0x07fc2321   Thumb Code    48  lto-llvm-8ef5f6.o(.text.NMI_HandlerC)
    SysTick_Handler                          0x07fc244d   Thumb Code     2  lto-llvm-8ef5f6.o(.text.SysTick_Handler)
    UART2_Handler                            0x07fc2451   Thumb Code   140  lto-llvm-8ef5f6.o(.text.UART2_Handler)
    WKUP_QUADEC_Handler                      0x07fc24e5   Thumb Code    88  lto-llvm-8ef5f6.o(.text.WKUP_QUADEC_Handler)
    main                                     0x07fc5b49   Thumb Code  2536  lto-llvm-8ef5f6.o(.text.main)
    rwble_isr                                0x07fc6ba1   Thumb Code   228  lto-llvm-8ef5f6.o(.text.rwble_isr)
    __0sprintf$8                             0x07fc8171   Thumb Code    36  printf8.o(i.__0sprintf$8)
    __1sprintf$8                             0x07fc8171   Thumb Code     0  printf8.o(i.__0sprintf$8)
    __2sprintf                               0x07fc8171   Thumb Code     0  printf8.o(i.__0sprintf$8)
    __scatterload_copy                       0x07fc8199   Thumb Code    14  handlers.o(i.__scatterload_copy)
    __scatterload_null                       0x07fc81a7   Thumb Code     2  handlers.o(i.__scatterload_null)
    __scatterload_zeroinit                   0x07fc81a9   Thumb Code    14  handlers.o(i.__scatterload_zeroinit)
    SystemInit                               0x07fc8639   Thumb Code    56  lto-llvm-8ef5f6.o(system_DA14xxx)
    Region$$Table$$Base                      0x07fcd840   Number         0  anon$$obj.o(Region$$Table)
    Region$$Table$$Limit                     0x07fcd870   Number         0  anon$$obj.o(Region$$Table)
    __initial_sp                             0x07fcdff8   Data           0  startup_da14585_586.o(STACK)
    ble_wakeup_executed                      0x07fd7600   Data           0  da14585_symbols.txt ABSOLUTE
    rf_in_sleep                              0x07fd7601   Data           0  da14585_symbols.txt ABSOLUTE
    custom_preinit                           0x07fd7604   Data           0  da14585_symbols.txt ABSOLUTE
    custom_postinit                          0x07fd7608   Data           0  da14585_symbols.txt ABSOLUTE
    custom_appinit                           0x07fd760c   Data           0  da14585_symbols.txt ABSOLUTE
    custom_preloop                           0x07fd7610   Data           0  da14585_symbols.txt ABSOLUTE
    custom_preschedule                       0x07fd7614   Data           0  da14585_symbols.txt ABSOLUTE
    custom_postschedule                      0x07fd7618   Data           0  da14585_symbols.txt ABSOLUTE
    custom_postschedule_async                0x07fd761c   Data           0  da14585_symbols.txt ABSOLUTE
    custom_presleepcheck                     0x07fd7620   Data           0  da14585_symbols.txt ABSOLUTE
    custom_appsleepset                       0x07fd7624   Data           0  da14585_symbols.txt ABSOLUTE
    custom_postsleepcheck                    0x07fd7628   Data           0  da14585_symbols.txt ABSOLUTE
    custom_presleepenter                     0x07fd762c   Data           0  da14585_symbols.txt ABSOLUTE
    custom_postsleepexit                     0x07fd7630   Data           0  da14585_symbols.txt ABSOLUTE
    custom_prewakeup                         0x07fd7634   Data           0  da14585_symbols.txt ABSOLUTE
    custom_postwakeup                        0x07fd7638   Data           0  da14585_symbols.txt ABSOLUTE
    custom_preidlecheck                      0x07fd763c   Data           0  da14585_symbols.txt ABSOLUTE
    custom_pti_set                           0x07fd7640   Data           0  da14585_symbols.txt ABSOLUTE
    REG_BLE_EM_TX_BUFFER_SIZE                0x07fd7644   Data           0  da14585_symbols.txt ABSOLUTE
    REG_BLE_EM_RX_BUFFER_SIZE                0x07fd7648   Data           0  da14585_symbols.txt ABSOLUTE
    _ble_base                                0x07fd764c   Data           0  da14585_symbols.txt ABSOLUTE
    gap_cfg_user                             0x07fd7650   Data           0  da14585_symbols.txt ABSOLUTE
    rom_func_addr_table                      0x07fd7654   Data           0  da14585_symbols.txt ABSOLUTE
    rom_cfg_table                            0x07fd7658   Data           0  da14585_symbols.txt ABSOLUTE
    BLE_TX_DESC_DATA_USER                    0x07fd765c   Data           0  da14585_symbols.txt ABSOLUTE
    BLE_TX_DESC_CNTL_USER                    0x07fd7660   Data           0  da14585_symbols.txt ABSOLUTE
    LLM_LE_ADV_DUMMY_IDX                     0x07fd7664   Data           0  da14585_symbols.txt ABSOLUTE
    LLM_LE_SCAN_CON_REQ_ADV_DIR_IDX          0x07fd7668   Data           0  da14585_symbols.txt ABSOLUTE
    LLM_LE_SCAN_RSP_IDX                      0x07fd766c   Data           0  da14585_symbols.txt ABSOLUTE
    LLM_LE_ADV_IDX                           0x07fd7670   Data           0  da14585_symbols.txt ABSOLUTE
    length_exchange_needed                   0x07fd7674   Data           0  da14585_symbols.txt ABSOLUTE
    enh_con_cmp_cnt                          0x07fd7678   Data           0  da14585_symbols.txt ABSOLUTE
    rx_pkt_cnt                               0x07fd7680   Data           0  da14585_symbols.txt ABSOLUTE
    rx_pkt_cnt_bad                           0x07fd7684   Data           0  da14585_symbols.txt ABSOLUTE
    rx_pkt_cnt_bad_adv                       0x07fd7688   Data           0  da14585_symbols.txt ABSOLUTE
    rx_pkt_cnt_bad_scn                       0x07fd768c   Data           0  da14585_symbols.txt ABSOLUTE
    rx_pkt_cnt_bad_oth                       0x07fd7690   Data           0  da14585_symbols.txt ABSOLUTE
    rx_pkt_cnt_bad_wo_sync_err               0x07fd7694   Data           0  da14585_symbols.txt ABSOLUTE
    rx_pkt_cnt_bad_con                       0x07fd7698   Data           0  da14585_symbols.txt ABSOLUTE
    connect_req_cnt                          0x07fd769c   Data           0  da14585_symbols.txt ABSOLUTE
    last_status                              0x07fd76a0   Data           0  da14585_symbols.txt ABSOLUTE
    llc_state                                0x07fd76a4   Data           0  da14585_symbols.txt ABSOLUTE
    lld_sleep_env                            0x07fd76ac   Data           0  da14585_symbols.txt ABSOLUTE
    lld_wlcoex_enable                        0x07fd76b0   Data           0  da14585_symbols.txt ABSOLUTE
    ble_duplicate_filter_max                 0x07fd76b4   Data           0  da14585_symbols.txt ABSOLUTE
    ble_duplicate_filter_found               0x07fd76b5   Data           0  da14585_symbols.txt ABSOLUTE
    alter_conn_adv_all_cnt                   0x07fd76b8   Data           0  da14585_symbols.txt ABSOLUTE
    alter_conn_adv_dir_cnt                   0x07fd76bc   Data           0  da14585_symbols.txt ABSOLUTE
    alter_conn_adv_cnt                       0x07fd76c0   Data           0  da14585_symbols.txt ABSOLUTE
    create_conn_cnt                          0x07fd76c4   Data           0  da14585_symbols.txt ABSOLUTE
    alter_conn_cnt                           0x07fd76c8   Data           0  da14585_symbols.txt ABSOLUTE
    alter_conn_restart_cnt                   0x07fd76cc   Data           0  da14585_symbols.txt ABSOLUTE
    alter_conn_peer_addr                     0x07fd76d0   Data           0  da14585_symbols.txt ABSOLUTE
    alter_conn_local_addr                    0x07fd76d6   Data           0  da14585_symbols.txt ABSOLUTE
    set_adv_data_discard_old                 0x07fd76dc   Data           0  da14585_symbols.txt ABSOLUTE
    llm_resolving_list_max                   0x07fd76dd   Data           0  da14585_symbols.txt ABSOLUTE
    llm_bt_env                               0x07fd76de   Data           0  da14585_symbols.txt ABSOLUTE
    init_tx_cnt_cntl_cnt1                    0x07fd76e8   Data           0  da14585_symbols.txt ABSOLUTE
    init_tx_cnt_cntl_cnt                     0x07fd76ec   Data           0  da14585_symbols.txt ABSOLUTE
    tx_cnt_cntl_cnt                          0x07fd76f0   Data           0  da14585_symbols.txt ABSOLUTE
    llm_state                                0x07fd76f4   Data           0  da14585_symbols.txt ABSOLUTE
    gtl_state                                0x07fd76f8   Data           0  da14585_symbols.txt ABSOLUTE
    use_h4tl                                 0x07fd76f9   Data           0  da14585_symbols.txt ABSOLUTE
    hci_cmd_desc_root_tab                    0x07fd76fc   Data           0  da14585_symbols.txt ABSOLUTE
    gattc_state                              0x07fd772c   Data           0  da14585_symbols.txt ABSOLUTE
    gattm_state                              0x07fd7734   Data           0  da14585_symbols.txt ABSOLUTE
    l2cc_state                               0x07fd7735   Data           0  da14585_symbols.txt ABSOLUTE
    l2cm_env                                 0x07fd773e   Data           0  da14585_symbols.txt ABSOLUTE
    gapc_state                               0x07fd7744   Data           0  da14585_symbols.txt ABSOLUTE
    gapm_state                               0x07fd774c   Data           0  da14585_symbols.txt ABSOLUTE
    ecdh_key_creation_in_progress            0x07fd7750   Data           0  da14585_symbols.txt ABSOLUTE
    ke_free_bad                              0x07fd7754   Data           0  da14585_symbols.txt ABSOLUTE
    rwip_env                                 0x07fd7758   Data           0  da14585_symbols.txt ABSOLUTE
    ble_reg_save                             0x07fd7764   Data           0  da14585_symbols.txt ABSOLUTE
    sleep_env                                0x07fd77b4   Data           0  da14585_symbols.txt ABSOLUTE
    uart_env                                 0x07fd77b8   Data           0  da14585_symbols.txt ABSOLUTE
    ke_mem_heaps_used                        0x07fd77dc   Data           0  da14585_symbols.txt ABSOLUTE
    co_buf_env                               0x07fd77e0   Data           0  da14585_symbols.txt ABSOLUTE
    llc_env                                  0x07fd7918   Data           0  da14585_symbols.txt ABSOLUTE
    lld_evt_env                              0x07fd7938   Data           0  da14585_symbols.txt ABSOLUTE
    llm_le_env                               0x07fd7964   Data           0  da14585_symbols.txt ABSOLUTE
    llm_resolving_list                       0x07fd7a60   Data           0  da14585_symbols.txt ABSOLUTE
    ea_env                                   0x07fd7cb8   Data           0  da14585_symbols.txt ABSOLUTE
    gtl_env                                  0x07fd7cf8   Data           0  da14585_symbols.txt ABSOLUTE
    hci_env                                  0x07fd7d40   Data           0  da14585_symbols.txt ABSOLUTE
    h4tl_env                                 0x07fd7d50   Data           0  da14585_symbols.txt ABSOLUTE
    gattc_env                                0x07fd7d68   Data           0  da14585_symbols.txt ABSOLUTE
    gattm_env                                0x07fd7d88   Data           0  da14585_symbols.txt ABSOLUTE
    l2cc_env                                 0x07fd7dac   Data           0  da14585_symbols.txt ABSOLUTE
    ecdh_key                                 0x07fd7dcc   Data           0  da14585_symbols.txt ABSOLUTE
    gapc_env                                 0x07fd7e2c   Data           0  da14585_symbols.txt ABSOLUTE
    gapm_env                                 0x07fd7e4c   Data           0  da14585_symbols.txt ABSOLUTE
    ke_env                                   0x07fd7e78   Data           0  da14585_symbols.txt ABSOLUTE
    rwip_rf                                  0x07fd7fb4   Data           0  da14585_symbols.txt ABSOLUTE



==============================================================================

Memory Map of the image

  Image Entry point : 0x07fc0511

  Load Region LR_IROM1 (Base: 0x07fc0000, Size: 0x000000a0, Max: 0x000000c0, ABSOLUTE)

    Execution Region ER_IROM1 (Exec base: 0x07fc0000, Load base: 0x07fc0000, Size: 0x000000a0, Max: 0x000000c0, ABSOLUTE)

    Exec Addr    Load Addr    Size         Type   Attr      Idx    E Section Name        Object

    0x07fc0000   0x07fc0000   0x000000a0   Data   RO            5    RESET               startup_da14585_586.o



  Load Region LR_IROM2 (Base: 0x07fc00c0, Size: 0x00000000, Max: 0x00000050, ABSOLUTE)

    Execution Region ER_IROM2 (Exec base: 0x07fc00c0, Load base: 0x07fc00c0, Size: 0x00000050, Max: 0x00000050, ABSOLUTE)

    Exec Addr    Load Addr    Size         Type   Attr      Idx    E Section Name        Object

    0x07fc00c0        -       0x00000050   Zero   RW            1    ER_IROM2.bss        anon$$obj.o



  Load Region LR_TRNG_ZI (Base: 0x07fc0110, Size: 0x00000000, Max: 0x00000400, ABSOLUTE)

    Execution Region ER_TRNG_ZI (Exec base: 0x07fc0110, Load base: 0x07fc0110, Size: 0x00000400, Max: 0x00000400, ABSOLUTE)

    Exec Addr    Load Addr    Size         Type   Attr      Idx    E Section Name        Object

    0x07fc0110        -       0x00000400   Zero   RW          922    .bss.trng_buffer_area_zi  lto-llvm-8ef5f6.o



  Load Region LR_IROM3 (Base: 0x07fc0510, Size: 0x0000d364, Max: 0x00011430, ABSOLUTE)

    Execution Region ER_IROM3 (Exec base: 0x07fc0510, Load base: 0x07fc0510, Size: 0x0000d364, Max: 0x00011430, ABSOLUTE)

    Exec Addr    Load Addr    Size         Type   Attr      Idx    E Section Name        Object

    0x07fc0510   0x07fc0510   0x00000000   Code   RO          119  * .ARM.Collect$$$$00000000  mc_p.l(entry.o)
    0x07fc0510   0x07fc0510   0x00000004   Code   RO          408    .ARM.Collect$$$$00000001  mc_p.l(entry2.o)
    0x07fc0514   0x07fc0514   0x00000004   Code   RO          411    .ARM.Collect$$$$00000004  mc_p.l(entry5.o)
    0x07fc0518   0x07fc0518   0x00000000   Code   RO          413    .ARM.Collect$$$$00000008  mc_p.l(entry7b.o)
    0x07fc0518   0x07fc0518   0x00000000   Code   RO          415    .ARM.Collect$$$$0000000A  mc_p.l(entry8b.o)
    0x07fc0518   0x07fc0518   0x00000008   Code   RO          416    .ARM.Collect$$$$0000000B  mc_p.l(entry9a.o)
    0x07fc0520   0x07fc0520   0x00000000   Code   RO          418    .ARM.Collect$$$$0000000D  mc_p.l(entry10a.o)
    0x07fc0520   0x07fc0520   0x00000000   Code   RO          420    .ARM.Collect$$$$0000000F  mc_p.l(entry11a.o)
    0x07fc0520   0x07fc0520   0x00000004   Code   RO          409    .ARM.Collect$$$$00002712  mc_p.l(entry2.o)
    0x07fc0524   0x07fc0524   0x00000050   Code   RO            6    .text               startup_da14585_586.o
    0x07fc0574   0x07fc0574   0x00001544   Code   RO          102    .text               da14585_586.lib(patch.o)
    0x07fc1ab8   0x07fc1ab8   0x00000114   Code   RO          107    .text               da14585_586.lib(rf_calibration.o)
    0x07fc1bcc   0x07fc1bcc   0x000000e8   Code   RO          109    .text               da14585_586.lib(smpc_util.o)
    0x07fc1cb4   0x07fc1cb4   0x00000060   Code   RO          427    .text               mc_p.l(uldiv.o)
    0x07fc1d14   0x07fc1d14   0x00000024   Code   RO          451    .text               mc_p.l(init.o)
    0x07fc1d38   0x07fc1d38   0x00000022   Code   RO          454    .text               mc_p.l(llushr.o)
    0x07fc1d5a   0x07fc1d5a   0x00000002   PAD
    0x07fc1d5c   0x07fc1d5c   0x0000000c   Code   RO          552    .text.ADC_Handler   lto-llvm-8ef5f6.o
    0x07fc1d68   0x07fc1d68   0x00000188   Code   RO          594    .text.BLE_WAKEUP_LP_Handler  lto-llvm-8ef5f6.o
    0x07fc1ef0   0x07fc1ef0   0x00000008   Code   RO          886    .text.DEV_SPI_WriteByte  lto-llvm-8ef5f6.o
    0x07fc1ef8   0x07fc1ef8   0x00000024   Code   RO          892    .text.EPD_2IN13_V2_ReadBusy  lto-llvm-8ef5f6.o
    0x07fc1f1c   0x07fc1f1c   0x00000020   Code   RO          888    .text.EPD_2IN13_V2_SendCommand  lto-llvm-8ef5f6.o
    0x07fc1f3c   0x07fc1f3c   0x00000018   Code   RO          890    .text.EPD_2IN13_V2_SendData  lto-llvm-8ef5f6.o
    0x07fc1f54   0x07fc1f54   0x000001d8   Code   RO          908    .text.EPD_DrawUTF8  lto-llvm-8ef5f6.o
    0x07fc212c   0x07fc212c   0x00000030   Code   RO          884    .text.EPD_GPIO_init  lto-llvm-8ef5f6.o
    0x07fc215c   0x07fc215c   0x0000000a   Code   RO          530    .text.GPIO0_Handler  lto-llvm-8ef5f6.o
    0x07fc2166   0x07fc2166   0x0000000a   Code   RO          532    .text.GPIO1_Handler  lto-llvm-8ef5f6.o
    0x07fc2170   0x07fc2170   0x0000000a   Code   RO          534    .text.GPIO2_Handler  lto-llvm-8ef5f6.o
    0x07fc217a   0x07fc217a   0x0000000a   Code   RO          536    .text.GPIO3_Handler  lto-llvm-8ef5f6.o
    0x07fc2184   0x07fc2184   0x0000000a   Code   RO          538    .text.GPIO4_Handler  lto-llvm-8ef5f6.o
    0x07fc218e   0x07fc218e   0x00000002   PAD
    0x07fc2190   0x07fc2190   0x00000030   Code   RO          524    .text.GPIO_ConfigurePin  lto-llvm-8ef5f6.o
    0x07fc21c0   0x07fc21c0   0x00000018   Code   RO          526    .text.GPIO_SetActive  lto-llvm-8ef5f6.o
    0x07fc21d8   0x07fc21d8   0x00000044   Code   RO          528    .text.GPIOn_Handler  lto-llvm-8ef5f6.o
    0x07fc221c   0x07fc221c   0x00000018   Code   RO          474    .text.HardFault_HandlerC  lto-llvm-8ef5f6.o
    0x07fc2234   0x07fc2234   0x00000010   Code   RO          586    .text.I2C_Handler   lto-llvm-8ef5f6.o
    0x07fc2244   0x07fc2244   0x000000dc   Code   RO          910    .text.LUNAR_SolarToLunar  lto-llvm-8ef5f6.o
    0x07fc2320   0x07fc2320   0x0000003c   Code   RO          476    .text.NMI_HandlerC  lto-llvm-8ef5f6.o
    0x07fc235c   0x07fc235c   0x00000090   Code   RO          906    .text.Paint_SetPixel  lto-llvm-8ef5f6.o
    0x07fc23ec   0x07fc23ec   0x00000002   Code   RO          612    .text.RADIOCNTL_Handler  lto-llvm-8ef5f6.o
    0x07fc23ee   0x07fc23ee   0x0000005e   Code   RO          912    .text.SolarToInt    lto-llvm-8ef5f6.o
    0x07fc244c   0x07fc244c   0x00000002   Code   RO          588    .text.SysTick_Handler  lto-llvm-8ef5f6.o
    0x07fc244e   0x07fc244e   0x00000002   PAD
    0x07fc2450   0x07fc2450   0x00000094   Code   RO          580    .text.UART2_Handler  lto-llvm-8ef5f6.o
    0x07fc24e4   0x07fc24e4   0x00000060   Code   RO          540    .text.WKUP_QUADEC_Handler  lto-llvm-8ef5f6.o
    0x07fc2544   0x07fc2544   0x00000028   Code   RO          484    .text._puts         lto-llvm-8ef5f6.o
    0x07fc256c   0x07fc256c   0x00000024   Code   RO          546    .text.adc_get_sample  lto-llvm-8ef5f6.o
    0x07fc2590   0x07fc2590   0x00000060   Code   RO          548    .text.adc_get_vbat_sample  lto-llvm-8ef5f6.o
    0x07fc25f0   0x07fc25f0   0x00000074   Code   RO          544    .text.adc_init      lto-llvm-8ef5f6.o
    0x07fc2664   0x07fc2664   0x00000020   Code   RO          550    .text.adc_usDelay   lto-llvm-8ef5f6.o
    0x07fc2684   0x07fc2684   0x00000094   Code   RO          876    .text.adv_data_update_timer_cb  lto-llvm-8ef5f6.o
    0x07fc2718   0x07fc2718   0x00000050   Code   RO          804    .text.app_bass_alert_timer_handler  lto-llvm-8ef5f6.o
    0x07fc2768   0x07fc2768   0x00000054   Code   RO          806    .text.app_bass_connect_timer_handler  lto-llvm-8ef5f6.o
    0x07fc27bc   0x07fc27bc   0x00000048   Code   RO          788    .text.app_bass_create_db  lto-llvm-8ef5f6.o
    0x07fc2804   0x07fc2804   0x0000004c   Code   RO          790    .text.app_bass_enable  lto-llvm-8ef5f6.o
    0x07fc2850   0x07fc2850   0x00000020   Code   RO          794    .text.app_bass_process_handler  lto-llvm-8ef5f6.o
    0x07fc2870   0x07fc2870   0x00000028   Code   RO          802    .text.app_bass_timer_handler  lto-llvm-8ef5f6.o
    0x07fc2898   0x07fc2898   0x000000a4   Code   RO          792    .text.app_batt_lvl  lto-llvm-8ef5f6.o
    0x07fc293c   0x07fc293c   0x00000034   Code   RO          864    .text.app_custs1_create_db  lto-llvm-8ef5f6.o
    0x07fc2970   0x07fc2970   0x00000004   Code   RO          866    .text.app_custs1_process_handler  lto-llvm-8ef5f6.o
    0x07fc2974   0x07fc2974   0x00000080   Code   RO          734    .text.app_db_init_next  lto-llvm-8ef5f6.o
    0x07fc29f4   0x07fc29f4   0x00000038   Code   RO          808    .text.app_diss_create_db  lto-llvm-8ef5f6.o
    0x07fc2a2c   0x07fc2a2c   0x00000020   Code   RO          810    .text.app_diss_process_handler  lto-llvm-8ef5f6.o
    0x07fc2a4c   0x07fc2a4c   0x00000038   Code   RO          736    .text.app_easy_gap_disconnect  lto-llvm-8ef5f6.o
    0x07fc2a84   0x07fc2a84   0x00000054   Code   RO          848    .text.app_easy_security_tk_exch  lto-llvm-8ef5f6.o
    0x07fc2ad8   0x07fc2ad8   0x00000058   Code   RO          860    .text.app_easy_timer  lto-llvm-8ef5f6.o
    0x07fc2b30   0x07fc2b30   0x00000050   Code   RO          862    .text.app_easy_timer_cancel  lto-llvm-8ef5f6.o
    0x07fc2b80   0x07fc2b80   0x00000048   Code   RO          842    .text.app_entry_point_handler  lto-llvm-8ef5f6.o
    0x07fc2bc8   0x07fc2bc8   0x00000094   Code   RO          826    .text.app_erase_flash_sectors  lto-llvm-8ef5f6.o
    0x07fc2c5c   0x07fc2c5c   0x000000bc   Code   RO          868    .text.app_fill_random_byte_array  lto-llvm-8ef5f6.o
    0x07fc2d18   0x07fc2d18   0x000000e4   Code   RO          824    .text.app_flash_write_data  lto-llvm-8ef5f6.o
    0x07fc2dfc   0x07fc2dfc   0x00000020   Code   RO          742    .text.app_gap_process_handler  lto-llvm-8ef5f6.o
    0x07fc2e1c   0x07fc2e1c   0x00000038   Code   RO          846    .text.app_msg_utils_api_process_handler  lto-llvm-8ef5f6.o
    0x07fc2e54   0x07fc2e54   0x0000001c   Code   RO          830    .text.app_read_ext_mem  lto-llvm-8ef5f6.o
    0x07fc2e70   0x07fc2e70   0x00000020   Code   RO          772    .text.app_sec_process_handler  lto-llvm-8ef5f6.o
    0x07fc2e90   0x07fc2e90   0x0000000e   Code   RO          822    .text.app_spi_flash_init  lto-llvm-8ef5f6.o
    0x07fc2e9e   0x07fc2e9e   0x00000002   PAD
    0x07fc2ea0   0x07fc2ea0   0x00000070   Code   RO          844    .text.app_std_process_event  lto-llvm-8ef5f6.o
    0x07fc2f10   0x07fc2f10   0x00000034   Code   RO          814    .text.app_suotar_create_db  lto-llvm-8ef5f6.o
    0x07fc2f44   0x07fc2f44   0x00000020   Code   RO          832    .text.app_suotar_process_handler  lto-llvm-8ef5f6.o
    0x07fc2f64   0x07fc2f64   0x00000080   Code   RO          820    .text.app_suotar_spi_config  lto-llvm-8ef5f6.o
    0x07fc2fe4   0x07fc2fe4   0x00000058   Code   RO          818    .text.app_suotar_stop  lto-llvm-8ef5f6.o
    0x07fc303c   0x07fc303c   0x0000013c   Code   RO          852    .text.app_timer_api_process_handler  lto-llvm-8ef5f6.o
    0x07fc3178   0x07fc3178   0x0000000e   Code   RO          738    .text.app_timer_set  lto-llvm-8ef5f6.o
    0x07fc3186   0x07fc3186   0x00000098   Code   RO          482    .text.arch_itoa     lto-llvm-8ef5f6.o
    0x07fc321e   0x07fc321e   0x00000002   PAD
    0x07fc3220   0x07fc3220   0x0000016c   Code   RO          480    .text.arch_printf   lto-llvm-8ef5f6.o
    0x07fc338c   0x07fc338c   0x00000064   Code   RO          478    .text.arch_printf_flush  lto-llvm-8ef5f6.o
    0x07fc33f0   0x07fc33f0   0x0000000e   Code   RO          486    .text.arch_strlen   lto-llvm-8ef5f6.o
    0x07fc33fe   0x07fc33fe   0x00000018   Code   RO          512    .text.ba431_get_rand_func  lto-llvm-8ef5f6.o
    0x07fc3416   0x07fc3416   0x00000004   Code   RO          800    .text.bass_batt_level_ntf_cfg_ind_handler  lto-llvm-8ef5f6.o
    0x07fc341a   0x07fc341a   0x00000002   PAD
    0x07fc341c   0x07fc341c   0x0000006c   Code   RO          724    .text.bass_batt_level_upd_req_handler  lto-llvm-8ef5f6.o
    0x07fc3488   0x07fc3488   0x00000004   Code   RO          798    .text.bass_batt_level_upd_rsp_handler  lto-llvm-8ef5f6.o
    0x07fc348c   0x07fc348c   0x0000001c   Code   RO          714    .text.bass_cleanup  lto-llvm-8ef5f6.o
    0x07fc34a8   0x07fc34a8   0x00000024   Code   RO          712    .text.bass_create   lto-llvm-8ef5f6.o
    0x07fc34cc   0x07fc34cc   0x0000001c   Code   RO          710    .text.bass_destroy  lto-llvm-8ef5f6.o
    0x07fc34e8   0x07fc34e8   0x0000007c   Code   RO          722    .text.bass_enable_req_handler  lto-llvm-8ef5f6.o
    0x07fc3564   0x07fc3564   0x00000004   Code   RO          796    .text.bass_enable_rsp_handler  lto-llvm-8ef5f6.o
    0x07fc3568   0x07fc3568   0x0000011c   Code   RO          718    .text.bass_exe_operation  lto-llvm-8ef5f6.o
    0x07fc3684   0x07fc3684   0x00000066   Code   RO          716    .text.bass_get_att_idx  lto-llvm-8ef5f6.o
    0x07fc36ea   0x07fc36ea   0x00000002   PAD
    0x07fc36ec   0x07fc36ec   0x0000016c   Code   RO          708    .text.bass_init     lto-llvm-8ef5f6.o
    0x07fc3858   0x07fc3858   0x0000006c   Code   RO          720    .text.bass_notify_batt_lvl  lto-llvm-8ef5f6.o
    0x07fc38c4   0x07fc38c4   0x000000ec   Code   RO          542    .text.battery_get_lvl  lto-llvm-8ef5f6.o
    0x07fc39b0   0x07fc39b0   0x00000034   Code   RO          902    .text.bls_att_pushNotifyData  lto-llvm-8ef5f6.o
    0x07fc39e4   0x07fc39e4   0x00000080   Code   RO          858    .text.create_timer  lto-llvm-8ef5f6.o
    0x07fc3a64   0x07fc3a64   0x00000002   Code   RO          506    .text.crypto_init_func  lto-llvm-8ef5f6.o
    0x07fc3a66   0x07fc3a66   0x00000002   PAD
    0x07fc3a68   0x07fc3a68   0x00000050   Code   RO          670    .text.custs1_att_get_value  lto-llvm-8ef5f6.o
    0x07fc3ab8   0x07fc3ab8   0x00000040   Code   RO          664    .text.custs1_att_info_rsp_handler  lto-llvm-8ef5f6.o
    0x07fc3af8   0x07fc3af8   0x00000062   Code   RO          674    .text.custs1_att_set_value  lto-llvm-8ef5f6.o
    0x07fc3b5a   0x07fc3b5a   0x00000002   PAD
    0x07fc3b5c   0x07fc3b5c   0x00000058   Code   RO          648    .text.custs1_cleanup  lto-llvm-8ef5f6.o
    0x07fc3bb4   0x07fc3bb4   0x00000054   Code   RO          646    .text.custs1_create  lto-llvm-8ef5f6.o
    0x07fc3c08   0x07fc3c08   0x00000028   Code   RO          644    .text.custs1_destroy  lto-llvm-8ef5f6.o
    0x07fc3c30   0x07fc3c30   0x00000104   Code   RO          668    .text.custs1_exe_operation  lto-llvm-8ef5f6.o
    0x07fc3d34   0x07fc3d34   0x0000001c   Code   RO          622    .text.custs1_get_att_handle  lto-llvm-8ef5f6.o
    0x07fc3d50   0x07fc3d50   0x00000026   Code   RO          624    .text.custs1_get_att_idx  lto-llvm-8ef5f6.o
    0x07fc3d76   0x07fc3d76   0x00000002   PAD
    0x07fc3d78   0x07fc3d78   0x00000298   Code   RO          642    .text.custs1_init   lto-llvm-8ef5f6.o
    0x07fc4010   0x07fc4010   0x00000078   Code   RO          672    .text.custs1_set_ccc_value  lto-llvm-8ef5f6.o
    0x07fc4088   0x07fc4088   0x00000078   Code   RO          662    .text.custs1_val_ind_req_handler  lto-llvm-8ef5f6.o
    0x07fc4100   0x07fc4100   0x00000080   Code   RO          658    .text.custs1_val_ntf_req_handler  lto-llvm-8ef5f6.o
    0x07fc4180   0x07fc4180   0x00000022   Code   RO          660    .text.custs1_val_set_req_handler  lto-llvm-8ef5f6.o
    0x07fc41a2   0x07fc41a2   0x00000002   PAD
    0x07fc41a4   0x07fc41a4   0x00000078   Code   RO          666    .text.custs1_value_req_rsp_handler  lto-llvm-8ef5f6.o
    0x07fc421c   0x07fc421c   0x00000002   Code   RO          502    .text.dbg_init_func_empty  lto-llvm-8ef5f6.o
    0x07fc421e   0x07fc421e   0x00000002   Code   RO          504    .text.dbg_platform_reset_complete_func_empty  lto-llvm-8ef5f6.o
    0x07fc4220   0x07fc4220   0x00000008   Code   RO          508    .text.dia_rand_func  lto-llvm-8ef5f6.o
    0x07fc4228   0x07fc4228   0x00000008   Code   RO          510    .text.dia_srand_func  lto-llvm-8ef5f6.o
    0x07fc4230   0x07fc4230   0x000001f4   Code   RO          900    .text.display       lto-llvm-8ef5f6.o
    0x07fc4424   0x07fc4424   0x00000002   Code   RO          632    .text.diss_cleanup  lto-llvm-8ef5f6.o
    0x07fc4426   0x07fc4426   0x00000002   Code   RO          630    .text.diss_create   lto-llvm-8ef5f6.o
    0x07fc4428   0x07fc4428   0x00000026   Code   RO          628    .text.diss_destroy  lto-llvm-8ef5f6.o
    0x07fc444e   0x07fc444e   0x00000002   PAD
    0x07fc4450   0x07fc4450   0x000000d8   Code   RO          626    .text.diss_init     lto-llvm-8ef5f6.o
    0x07fc4528   0x07fc4528   0x000000c0   Code   RO          636    .text.diss_set_value_req_handler  lto-llvm-8ef5f6.o
    0x07fc45e8   0x07fc45e8   0x00000084   Code   RO          640    .text.diss_value_cfm_handler  lto-llvm-8ef5f6.o
    0x07fc466c   0x07fc466c   0x000000c0   Code   RO          812    .text.diss_value_req_ind_handler  lto-llvm-8ef5f6.o
    0x07fc472c   0x07fc472c   0x0000002e   Code   RO          634    .text.diss_value_to_handle  lto-llvm-8ef5f6.o
    0x07fc475a   0x07fc475a   0x00000002   PAD
    0x07fc475c   0x07fc475c   0x000000a8   Code   RO          894    .text.do_display_update_with_analog_clock  lto-llvm-8ef5f6.o
    0x07fc4804   0x07fc4804   0x000000d4   Code   RO          898    .text.do_min_work_with_analog_clock  lto-llvm-8ef5f6.o
    0x07fc48d8   0x07fc48d8   0x00000128   Code   RO          776    .text.gapc_bond_ind_handler  lto-llvm-8ef5f6.o
    0x07fc4a00   0x07fc4a00   0x00000170   Code   RO          774    .text.gapc_bond_req_ind_handler  lto-llvm-8ef5f6.o
    0x07fc4b70   0x07fc4b70   0x00000024   Code   RO          748    .text.gapc_cmp_evt_handler  lto-llvm-8ef5f6.o
    0x07fc4b94   0x07fc4b94   0x00000140   Code   RO          750    .text.gapc_connection_req_ind_handler  lto-llvm-8ef5f6.o
    0x07fc4cd4   0x07fc4cd4   0x0000006c   Code   RO          752    .text.gapc_disconnect_ind_handler  lto-llvm-8ef5f6.o
    0x07fc4d40   0x07fc4d40   0x00000018   Code   RO          780    .text.gapc_encrypt_ind_handler  lto-llvm-8ef5f6.o
    0x07fc4d58   0x07fc4d58   0x00000004   Code   RO          778    .text.gapc_encrypt_req_ind_handler  lto-llvm-8ef5f6.o
    0x07fc4d5c   0x07fc4d5c   0x00000094   Code   RO          754    .text.gapc_get_dev_info_req_ind_handler  lto-llvm-8ef5f6.o
    0x07fc4df0   0x07fc4df0   0x00000004   Code   RO          764    .text.gapc_le_pkt_size_ind_handler  lto-llvm-8ef5f6.o
    0x07fc4df4   0x07fc4df4   0x00000020   Code   RO          762    .text.gapc_param_update_req_ind_handler  lto-llvm-8ef5f6.o
    0x07fc4e14   0x07fc4e14   0x00000004   Code   RO          768    .text.gapc_peer_features_ind_handler  lto-llvm-8ef5f6.o
    0x07fc4e18   0x07fc4e18   0x00000004   Code   RO          770    .text.gapc_security_ind_handler  lto-llvm-8ef5f6.o
    0x07fc4e1c   0x07fc4e1c   0x00000060   Code   RO          756    .text.gapc_set_dev_info_req_ind_handler  lto-llvm-8ef5f6.o
    0x07fc4e7c   0x07fc4e7c   0x00000004   Code   RO          782    .text.gapm_addr_solved_ind_handler  lto-llvm-8ef5f6.o
    0x07fc4e80   0x07fc4e80   0x00000004   Code   RO          760    .text.gapm_adv_report_ind_handler  lto-llvm-8ef5f6.o
    0x07fc4e84   0x07fc4e84   0x000000fc   Code   RO          746    .text.gapm_cmp_evt_handler  lto-llvm-8ef5f6.o
    0x07fc4f80   0x07fc4f80   0x00000038   Code   RO          744    .text.gapm_device_ready_ind_handler  lto-llvm-8ef5f6.o
    0x07fc4fb8   0x07fc4fb8   0x000000d0   Code   RO          758    .text.gapm_profile_added_ind_handler  lto-llvm-8ef5f6.o
    0x07fc5088   0x07fc5088   0x00000004   Code   RO          786    .text.gapm_ral_addr_ind_handler  lto-llvm-8ef5f6.o
    0x07fc508c   0x07fc508c   0x00000004   Code   RO          784    .text.gapm_ral_size_ind_handler  lto-llvm-8ef5f6.o
    0x07fc5090   0x07fc5090   0x00000058   Code   RO          654    .text.gattc_att_info_req_ind_handler  lto-llvm-8ef5f6.o
    0x07fc50e8   0x07fc50e8   0x00000054   Code   RO          726    .text.gattc_att_info_req_ind_handler.107  lto-llvm-8ef5f6.o
    0x07fc513c   0x07fc513c   0x00000014   Code   RO          656    .text.gattc_cmp_evt_handler  lto-llvm-8ef5f6.o
    0x07fc5150   0x07fc5150   0x00000010   Code   RO          732    .text.gattc_cmp_evt_handler.110  lto-llvm-8ef5f6.o
    0x07fc5160   0x07fc5160   0x000000e0   Code   RO          638    .text.gattc_read_req_ind_handler  lto-llvm-8ef5f6.o
    0x07fc5240   0x07fc5240   0x000000a8   Code   RO          700    .text.gattc_read_req_ind_handler.101  lto-llvm-8ef5f6.o
    0x07fc52e8   0x07fc52e8   0x000000d0   Code   RO          730    .text.gattc_read_req_ind_handler.109  lto-llvm-8ef5f6.o
    0x07fc53b8   0x07fc53b8   0x00000128   Code   RO          650    .text.gattc_read_req_ind_handler.74  lto-llvm-8ef5f6.o
    0x07fc54e0   0x07fc54e0   0x00000004   Code   RO          766    .text.gattc_svc_changed_cfg_ind_handler  lto-llvm-8ef5f6.o
    0x07fc54e4   0x07fc54e4   0x000001cc   Code   RO          652    .text.gattc_write_req_ind_handler  lto-llvm-8ef5f6.o
    0x07fc56b0   0x07fc56b0   0x000001fc   Code   RO          702    .text.gattc_write_req_ind_handler.102  lto-llvm-8ef5f6.o
    0x07fc58ac   0x07fc58ac   0x000000d8   Code   RO          728    .text.gattc_write_req_ind_handler.108  lto-llvm-8ef5f6.o
    0x07fc5984   0x07fc5984   0x0000006c   Code   RO          620    .text.get_cfg_handle  lto-llvm-8ef5f6.o
    0x07fc59f0   0x07fc59f0   0x00000050   Code   RO          516    .text.get_rc16m_count  lto-llvm-8ef5f6.o
    0x07fc5a40   0x07fc5a40   0x00000028   Code   RO          740    .text.get_user_prf_srv_perm  lto-llvm-8ef5f6.o
    0x07fc5a68   0x07fc5a68   0x00000078   Code   RO          592    .text.lld_sleep_compensate_func  lto-llvm-8ef5f6.o
    0x07fc5ae0   0x07fc5ae0   0x00000024   Code   RO          522    .text.lld_sleep_init_func  lto-llvm-8ef5f6.o
    0x07fc5b04   0x07fc5b04   0x00000008   Code   RO          520    .text.lld_sleep_lpcycles_2_us_sel_func  lto-llvm-8ef5f6.o
    0x07fc5b0c   0x07fc5b0c   0x00000008   Code   RO          518    .text.lld_sleep_us_2_lpcycles_sel_func  lto-llvm-8ef5f6.o
    0x07fc5b14   0x07fc5b14   0x00000034   Code   RO          850    .text.ltk_exch_create_msg  lto-llvm-8ef5f6.o
    0x07fc5b48   0x07fc5b48   0x00000a38   Code   RO          498    .text.main          lto-llvm-8ef5f6.o
    0x07fc6580   0x07fc6580   0x00000030   Code   RO          878    .text.mnf_data_update  lto-llvm-8ef5f6.o
    0x07fc65b0   0x07fc65b0   0x00000004   Code   RO          494    .text.nvds_del_func  lto-llvm-8ef5f6.o
    0x07fc65b4   0x07fc65b4   0x000000c8   Code   RO          490    .text.nvds_get_func  lto-llvm-8ef5f6.o
    0x07fc667c   0x07fc667c   0x00000004   Code   RO          492    .text.nvds_init_func  lto-llvm-8ef5f6.o
    0x07fc6680   0x07fc6680   0x00000004   Code   RO          496    .text.nvds_put_func  lto-llvm-8ef5f6.o
    0x07fc6684   0x07fc6684   0x0000002a   Code   RO          872    .text.on_suotar_status_change  lto-llvm-8ef5f6.o
    0x07fc66ae   0x07fc66ae   0x00000002   PAD
    0x07fc66b0   0x07fc66b0   0x00000054   Code   RO          880    .text.param_update_request_timer_cb  lto-llvm-8ef5f6.o
    0x07fc6704   0x07fc6704   0x00000144   Code   RO          870    .text.periph_init   lto-llvm-8ef5f6.o
    0x07fc6848   0x07fc6848   0x00000018   Code   RO          500    .text.platform_reset_func  lto-llvm-8ef5f6.o
    0x07fc6860   0x07fc6860   0x00000070   Code   RO          680    .text.prf_add_profile_func  lto-llvm-8ef5f6.o
    0x07fc68d0   0x07fc68d0   0x0000002c   Code   RO          684    .text.prf_cleanup_func  lto-llvm-8ef5f6.o
    0x07fc68fc   0x07fc68fc   0x00000028   Code   RO          682    .text.prf_create_func  lto-llvm-8ef5f6.o
    0x07fc6924   0x07fc6924   0x00000028   Code   RO          686    .text.prf_env_get   lto-llvm-8ef5f6.o
    0x07fc694c   0x07fc694c   0x00000028   Code   RO          688    .text.prf_get_id_from_task_func  lto-llvm-8ef5f6.o
    0x07fc6974   0x07fc6974   0x00000028   Code   RO          690    .text.prf_get_task_from_id_func  lto-llvm-8ef5f6.o
    0x07fc699c   0x07fc699c   0x00000064   Code   RO          676    .text.prf_init_func  lto-llvm-8ef5f6.o
    0x07fc6a00   0x07fc6a00   0x00000038   Code   RO          678    .text.prf_itf_get   lto-llvm-8ef5f6.o
    0x07fc6a38   0x07fc6a38   0x00000002   Code   RO          614    .text.rf_force_agc_enable  lto-llvm-8ef5f6.o
    0x07fc6a3a   0x07fc6a3a   0x00000002   PAD
    0x07fc6a3c   0x07fc6a3c   0x000000a4   Code   RO          600    .text.rf_init_func  lto-llvm-8ef5f6.o
    0x07fc6ae0   0x07fc6ae0   0x00000004   Code   RO          602    .text.rf_reg_rd     lto-llvm-8ef5f6.o
    0x07fc6ae4   0x07fc6ae4   0x00000002   Code   RO          604    .text.rf_reg_wr     lto-llvm-8ef5f6.o
    0x07fc6ae6   0x07fc6ae6   0x00000002   PAD
    0x07fc6ae8   0x07fc6ae8   0x0000004c   Code   RO          598    .text.rf_regs       lto-llvm-8ef5f6.o
    0x07fc6b34   0x07fc6b34   0x0000004c   Code   RO          618    .text.rf_reinit_func  lto-llvm-8ef5f6.o
    0x07fc6b80   0x07fc6b80   0x00000002   Code   RO          610    .text.rf_reset      lto-llvm-8ef5f6.o
    0x07fc6b82   0x07fc6b82   0x00000008   Code   RO          616    .text.rf_rssi_convert  lto-llvm-8ef5f6.o
    0x07fc6b8a   0x07fc6b8a   0x00000002   PAD
    0x07fc6b8c   0x07fc6b8c   0x00000010   Code   RO          608    .text.rf_sleep      lto-llvm-8ef5f6.o
    0x07fc6b9c   0x07fc6b9c   0x00000004   Code   RO          606    .text.rf_txpwr_dbm_get  lto-llvm-8ef5f6.o
    0x07fc6ba0   0x07fc6ba0   0x000000f4   Code   RO          596    .text.rwble_isr     lto-llvm-8ef5f6.o
    0x07fc6c94   0x07fc6c94   0x00000044   Code   RO          514    .text.set_sleep_delay  lto-llvm-8ef5f6.o
    0x07fc6cd8   0x07fc6cd8   0x00000038   Code   RO          560    .text.spi_access    lto-llvm-8ef5f6.o
    0x07fc6d10   0x07fc6d10   0x00000010   Code   RO          554    .text.spi_cs_high   lto-llvm-8ef5f6.o
    0x07fc6d20   0x07fc6d20   0x00000020   Code   RO          558    .text.spi_cs_low    lto-llvm-8ef5f6.o
    0x07fc6d40   0x07fc6d40   0x00000078   Code   RO          572    .text.spi_flash_auto_detect  lto-llvm-8ef5f6.o
    0x07fc6db8   0x07fc6db8   0x00000012   Code   RO          564    .text.spi_flash_is_busy  lto-llvm-8ef5f6.o
    0x07fc6dca   0x07fc6dca   0x00000002   PAD
    0x07fc6dcc   0x07fc6dcc   0x0000001c   Code   RO          896    .text.spi_flash_peripheral_init  lto-llvm-8ef5f6.o
    0x07fc6de8   0x07fc6de8   0x00000060   Code   RO          578    .text.spi_flash_read_data  lto-llvm-8ef5f6.o
    0x07fc6e48   0x07fc6e48   0x00000014   Code   RO          566    .text.spi_flash_read_status_reg  lto-llvm-8ef5f6.o
    0x07fc6e5c   0x07fc6e5c   0x00000018   Code   RO          570    .text.spi_flash_release_from_power_down  lto-llvm-8ef5f6.o
    0x07fc6e74   0x07fc6e74   0x0000001a   Code   RO          574    .text.spi_flash_ultra_deep_power_down  lto-llvm-8ef5f6.o
    0x07fc6e8e   0x07fc6e8e   0x00000002   PAD
    0x07fc6e90   0x07fc6e90   0x00000028   Code   RO          568    .text.spi_flash_wait_till_ready  lto-llvm-8ef5f6.o
    0x07fc6eb8   0x07fc6eb8   0x00000032   Code   RO          576    .text.spi_flash_write_enable  lto-llvm-8ef5f6.o
    0x07fc6eea   0x07fc6eea   0x00000002   PAD
    0x07fc6eec   0x07fc6eec   0x00000028   Code   RO          556    .text.spi_set_bitmode  lto-llvm-8ef5f6.o
    0x07fc6f14   0x07fc6f14   0x00000018   Code   RO          562    .text.spi_transaction  lto-llvm-8ef5f6.o
    0x07fc6f2c   0x07fc6f2c   0x00000034   Code   RO          698    .text.suotar_cleanup  lto-llvm-8ef5f6.o
    0x07fc6f60   0x07fc6f60   0x00000002   Code   RO          696    .text.suotar_create  lto-llvm-8ef5f6.o
    0x07fc6f62   0x07fc6f62   0x00000010   Code   RO          694    .text.suotar_destroy  lto-llvm-8ef5f6.o
    0x07fc6f72   0x07fc6f72   0x00000002   PAD
    0x07fc6f74   0x07fc6f74   0x0000003c   Code   RO          836    .text.suotar_gpio_map_ind_handler  lto-llvm-8ef5f6.o
    0x07fc6fb0   0x07fc6fb0   0x000004cc   Code   RO          692    .text.suotar_init   lto-llvm-8ef5f6.o
    0x07fc747c   0x07fc747c   0x00000038   Code   RO          704    .text.suotar_mem_info_update_req_handler  lto-llvm-8ef5f6.o
    0x07fc74b4   0x07fc74b4   0x000002cc   Code   RO          840    .text.suotar_patch_data_ind_handler  lto-llvm-8ef5f6.o
    0x07fc7780   0x07fc7780   0x00000048   Code   RO          838    .text.suotar_patch_len_ind_handler  lto-llvm-8ef5f6.o
    0x07fc77c8   0x07fc77c8   0x0000013c   Code   RO          834    .text.suotar_patch_mem_dev_ind_handler  lto-llvm-8ef5f6.o
    0x07fc7904   0x07fc7904   0x00000024   Code   RO          828    .text.suotar_send_mem_info_update_req  lto-llvm-8ef5f6.o
    0x07fc7928   0x07fc7928   0x00000024   Code   RO          816    .text.suotar_send_status_update_req  lto-llvm-8ef5f6.o
    0x07fc794c   0x07fc794c   0x00000080   Code   RO          706    .text.suotar_status_update_req_handler  lto-llvm-8ef5f6.o
    0x07fc79cc   0x07fc79cc   0x00000050   Code   RO          590    .text.systick_wait  lto-llvm-8ef5f6.o
    0x07fc7a1c   0x07fc7a1c   0x00000002   Code   RO          854    .text.timer_canceled_handler  lto-llvm-8ef5f6.o
    0x07fc7a1e   0x07fc7a1e   0x00000002   Code   RO          856    .text.timer_modified_handler  lto-llvm-8ef5f6.o
    0x07fc7a20   0x07fc7a20   0x00000154   Code   RO          904    .text.transformTime  lto-llvm-8ef5f6.o
    0x07fc7b74   0x07fc7b74   0x0000009c   Code   RO          488    .text.uart_callback  lto-llvm-8ef5f6.o
    0x07fc7c10   0x07fc7c10   0x0000000c   Code   RO          582    .text.uart_rx_isr   lto-llvm-8ef5f6.o
    0x07fc7c1c   0x07fc7c1c   0x00000068   Code   RO          584    .text.uart_send     lto-llvm-8ef5f6.o
    0x07fc7c84   0x07fc7c84   0x0000015c   Code   RO          874    .text.user_app_adv_start  lto-llvm-8ef5f6.o
    0x07fc7de0   0x07fc7de0   0x00000390   Code   RO          882    .text.user_catch_rest_hndl  lto-llvm-8ef5f6.o
    0x07fc8170   0x07fc8170   0x00000028   Code   RO          329    i.__0sprintf$8      mc_p.l(printf8.o)
    0x07fc8198   0x07fc8198   0x0000000e   Code   RO          936    i.__scatterload_copy  mc_p.l(handlers.o)
    0x07fc81a6   0x07fc81a6   0x00000002   Code   RO          937    i.__scatterload_null  mc_p.l(handlers.o)
    0x07fc81a8   0x07fc81a8   0x0000000e   Code   RO          938    i.__scatterload_zeroinit  mc_p.l(handlers.o)
    0x07fc81b6   0x07fc81b6   0x00000002   PAD
    0x07fc81b8   0x07fc81b8   0x00000428   Code   RO          334    i._printf_core      mc_p.l(printf8.o)
    0x07fc85e0   0x07fc85e0   0x00000020   Code   RO          335    i._printf_post_padding  mc_p.l(printf8.o)
    0x07fc8600   0x07fc8600   0x0000002c   Code   RO          336    i._printf_pre_padding  mc_p.l(printf8.o)
    0x07fc862c   0x07fc862c   0x0000000a   Code   RO          338    i._sputc            mc_p.l(printf8.o)
    0x07fc8636   0x07fc8636   0x00000002   PAD
    0x07fc8638   0x07fc8638   0x00000040   Code   RO          472    system_DA14xxx      lto-llvm-8ef5f6.o
    0x07fc8678   0x07fc8678   0x000000e0   Data   RO          103    .constdata          da14585_586.lib(patch.o)
    0x07fc8758   0x07fc8758   0x00005054   Data   RO          915    .rodata             lto-llvm-8ef5f6.o
    0x07fcd7ac   0x07fcd7ac   0x00000004   Data   RO          926    .rodata.cst4        lto-llvm-8ef5f6.o
    0x07fcd7b0   0x07fcd7b0   0x00000084   Data   RO          925    .rodata.str1.1      lto-llvm-8ef5f6.o
    0x07fcd834   0x07fcd834   0x0000000b   Data   RO          924    .rodata.str1.4      lto-llvm-8ef5f6.o
    0x07fcd83f   0x07fcd83f   0x00000001   PAD
    0x07fcd840   0x07fcd840   0x00000030   Data   RO          935    Region$$Table       anon$$obj.o
    0x07fcd870   0x07fcd870   0x00000004   Data   RW          921    .data               lto-llvm-8ef5f6.o


    Execution Region ER_PRODTEST (Exec base: 0x07fcd878, Load base: 0x07fcd874, Size: 0x00000000, Max: 0xffffffff, ABSOLUTE, UNINIT)

    **** No section assigned to this execution region ****


    Execution Region ER_ZI (Exec base: 0x07fcd878, Load base: 0x07fcd874, Size: 0x00000780, Max: 0xffffffff, ABSOLUTE)

    Exec Addr    Load Addr    Size         Type   Attr      Idx    E Section Name        Object

    0x07fcd878        -       0x00000180   Zero   RW          914    .bss                lto-llvm-8ef5f6.o
    0x07fcd9f8        -       0x00000600   Zero   RW            3    STACK               startup_da14585_586.o


    Execution Region ER_NZI (Exec base: 0x07fcdff8, Load base: 0x07fcd874, Size: 0x0000040c, Max: 0xffffffff, ABSOLUTE, UNINIT)

    Exec Addr    Load Addr    Size         Type   Attr      Idx    E Section Name        Object

    0x07fcdff8        -       0x0000040c   Zero   RW          917    .bss.heap_mem_area_not_ret  lto-llvm-8ef5f6.o



  Load Region LR_RETAINED_RAM0 (Base: 0x07fd1940, Size: 0x00000000, Max: 0x000042c4, ABSOLUTE)

    Execution Region RET_DATA_UNINIT (Exec base: 0x07fd1940, Load base: 0x07fd1940, Size: 0x00000000, Max: 0x00000000, ABSOLUTE, UNINIT)

    **** No section assigned to this execution region ****


    Execution Region RET_DATA (Exec base: 0x07fd1940, Load base: 0x07fd1940, Size: 0x00000d6c, Max: 0x000032c8, ABSOLUTE)

    Exec Addr    Load Addr    Size         Type   Attr      Idx    E Section Name        Object

    0x07fd1940        -       0x00000d6c   Zero   RW          923    .bss.retention_mem_area0  lto-llvm-8ef5f6.o


    Execution Region RET_HEAP (Exec base: 0x07fd26ac, Load base: 0x07fd1940, Size: 0x00000ffc, Max: 0x00000ffc, ABSOLUTE, UNINIT)

    Exec Addr    Load Addr    Size         Type   Attr      Idx    E Section Name        Object

    0x07fd26ac        -       0x0000080c   Zero   RW          919    .bss.heap_db_area   lto-llvm-8ef5f6.o
    0x07fd2eb8        -       0x00000274   Zero   RW          918    .bss.heap_env_area  lto-llvm-8ef5f6.o
    0x07fd312c        -       0x0000057c   Zero   RW          920    .bss.heap_msg_area  lto-llvm-8ef5f6.o



  Load Region LR_FREE_AREA (Base: 0x07fd7278, Size: 0x00000000, Max: 0x00000388, ABSOLUTE)

    Execution Region ER_FREE_AREA (Exec base: 0x07fd7278, Load base: 0x07fd7278, Size: 0x00000000, Max: 0x00000388, ABSOLUTE)

    **** No section assigned to this execution region ****


==============================================================================

Image component sizes


      Code (inc. data)   RO Data    RW Data    ZI Data      Debug   Object Name

     25644       2888      20711          4       9972     278623   lto-llvm-8ef5f6.o
        80         16        160          0       1536        776   startup_da14585_586.o

    ----------------------------------------------------------------------
     25764       2904      20920          4      11588     279399   Object Totals
         0          0         48          0         80          0   (incl. Generated)
        40          0          1          0          0          0   (incl. Padding)

    ----------------------------------------------------------------------

      Code (inc. data)   RO Data    RW Data    ZI Data      Debug   Library Member Name

      5444        230        224          0          0       1008   patch.o
       276         26          0          0          0        172   rf_calibration.o
       232         14          0          0          0        112   smpc_util.o
         0          0          0          0          0          0   entry.o
         0          0          0          0          0          0   entry10a.o
         0          0          0          0          0          0   entry11a.o
         8          4          0          0          0          0   entry2.o
         4          0          0          0          0          0   entry5.o
         0          0          0          0          0          0   entry7b.o
         0          0          0          0          0          0   entry8b.o
         8          4          0          0          0          0   entry9a.o
        30          0          0          0          0          0   handlers.o
        36          8          0          0          0         68   init.o
        34          0          0          0          0         68   llushr.o
      1190         48          0          0          0        384   printf8.o
        96          0          0          0          0         84   uldiv.o

    ----------------------------------------------------------------------
      7364        334        224          0          0       1896   Library Totals
         6          0          0          0          0          0   (incl. Padding)

    ----------------------------------------------------------------------

      Code (inc. data)   RO Data    RW Data    ZI Data      Debug   Library Name

      5952        270        224          0          0       1292   da14585_586.lib
      1406         64          0          0          0        604   mc_p.l

    ----------------------------------------------------------------------
      7364        334        224          0          0       1896   Library Totals

    ----------------------------------------------------------------------

==============================================================================


      Code (inc. data)   RO Data    RW Data    ZI Data      Debug   

     33128       3238      21144          4      11588     281007   Grand Totals
     33128       3238      21144          4      11588     281007   ELF Image Totals
     33128       3238      21144          4          0          0   ROM Totals

==============================================================================

    Total RO  Size (Code + RO Data)                54272 (  53.00kB)
    Total RW  Size (RW Data + ZI Data)             11592 (  11.32kB)
    Total ROM Size (Code + RO Data + RW Data)      54276 (  53.00kB)

==============================================================================

